
./tiny/mobilenet.so:     file format elf64-x86-64


Disassembly of section .init:

0000000000002000 <_init>:
    2000:	f3 0f 1e fa          	endbr64 
    2004:	48 83 ec 08          	sub    $0x8,%rsp
    2008:	48 8b 05 91 cf 0d 00 	mov    0xdcf91(%rip),%rax        # defa0 <__gmon_start__@Base>
    200f:	48 85 c0             	test   %rax,%rax
    2012:	74 02                	je     2016 <_init+0x16>
    2014:	ff d0                	call   *%rax
    2016:	48 83 c4 08          	add    $0x8,%rsp
    201a:	c3                   	ret    

Disassembly of section .plt:

0000000000002020 <printf@plt-0x10>:
    2020:	ff 35 e2 cf 0d 00    	push   0xdcfe2(%rip)        # df008 <_GLOBAL_OFFSET_TABLE_+0x8>
    2026:	ff 25 e4 cf 0d 00    	jmp    *0xdcfe4(%rip)        # df010 <_GLOBAL_OFFSET_TABLE_+0x10>
    202c:	0f 1f 40 00          	nopl   0x0(%rax)

0000000000002030 <printf@plt>:
    2030:	ff 25 e2 cf 0d 00    	jmp    *0xdcfe2(%rip)        # df018 <printf@GLIBC_2.2.5>
    2036:	68 00 00 00 00       	push   $0x0
    203b:	e9 e0 ff ff ff       	jmp    2020 <_init+0x20>

0000000000002040 <memset@plt>:
    2040:	ff 25 da cf 0d 00    	jmp    *0xdcfda(%rip)        # df020 <memset@GLIBC_2.2.5>
    2046:	68 01 00 00 00       	push   $0x1
    204b:	e9 d0 ff ff ff       	jmp    2020 <_init+0x20>

0000000000002050 <MatMul@plt>:
    2050:	ff 25 d2 cf 0d 00    	jmp    *0xdcfd2(%rip)        # df028 <MatMul@Base>
    2056:	68 02 00 00 00       	push   $0x2
    205b:	e9 c0 ff ff ff       	jmp    2020 <_init+0x20>

0000000000002060 <puts@plt>:
    2060:	ff 25 ca cf 0d 00    	jmp    *0xdcfca(%rip)        # df030 <puts@GLIBC_2.2.5>
    2066:	68 03 00 00 00       	push   $0x3
    206b:	e9 b0 ff ff ff       	jmp    2020 <_init+0x20>

0000000000002070 <omTensorGetStrides@plt>:
    2070:	ff 25 c2 cf 0d 00    	jmp    *0xdcfc2(%rip)        # df038 <omTensorGetStrides@@Base+0xd21c0>
    2076:	68 04 00 00 00       	push   $0x4
    207b:	e9 a0 ff ff ff       	jmp    2020 <_init+0x20>

0000000000002080 <__assert_fail@plt>:
    2080:	ff 25 ba cf 0d 00    	jmp    *0xdcfba(%rip)        # df040 <__assert_fail@GLIBC_2.2.5>
    2086:	68 05 00 00 00       	push   $0x5
    208b:	e9 90 ff ff ff       	jmp    2020 <_init+0x20>

0000000000002090 <omTensorListGetOmtArray@plt>:
    2090:	ff 25 b2 cf 0d 00    	jmp    *0xdcfb2(%rip)        # df048 <omTensorListGetOmtArray@@Base+0xd148c>
    2096:	68 06 00 00 00       	push   $0x6
    209b:	e9 80 ff ff ff       	jmp    2020 <_init+0x20>

00000000000020a0 <omTensorSetDataType@plt>:
    20a0:	ff 25 aa cf 0d 00    	jmp    *0xdcfaa(%rip)        # df050 <omTensorSetDataType@@Base+0xd20d0>
    20a6:	68 07 00 00 00       	push   $0x7
    20ab:	e9 70 ff ff ff       	jmp    2020 <_init+0x20>

00000000000020b0 <putchar@plt>:
    20b0:	ff 25 a2 cf 0d 00    	jmp    *0xdcfa2(%rip)        # df058 <putchar@GLIBC_2.2.5>
    20b6:	68 08 00 00 00       	push   $0x8
    20bb:	e9 60 ff ff ff       	jmp    2020 <_init+0x20>

00000000000020c0 <strncmp@plt>:
    20c0:	ff 25 9a cf 0d 00    	jmp    *0xdcf9a(%rip)        # df060 <strncmp@GLIBC_2.2.5>
    20c6:	68 09 00 00 00       	push   $0x9
    20cb:	e9 50 ff ff ff       	jmp    2020 <_init+0x20>

00000000000020d0 <malloc@plt>:
    20d0:	ff 25 92 cf 0d 00    	jmp    *0xdcf92(%rip)        # df068 <malloc@GLIBC_2.2.5>
    20d6:	68 0a 00 00 00       	push   $0xa
    20db:	e9 40 ff ff ff       	jmp    2020 <_init+0x20>

00000000000020e0 <omTensorListCreate@plt>:
    20e0:	ff 25 8a cf 0d 00    	jmp    *0xdcf8a(%rip)        # df070 <omTensorListCreate@@Base+0xd15ea>
    20e6:	68 0b 00 00 00       	push   $0xb
    20eb:	e9 30 ff ff ff       	jmp    2020 <_init+0x20>

00000000000020f0 <omTensorSetDataPtr@plt>:
    20f0:	ff 25 82 cf 0d 00    	jmp    *0xdcf82(%rip)        # df078 <omTensorSetDataPtr@@Base+0xd22e7>
    20f6:	68 0c 00 00 00       	push   $0xc
    20fb:	e9 20 ff ff ff       	jmp    2020 <_init+0x20>

0000000000002100 <omTensorGetDataPtr@plt>:
    2100:	ff 25 7a cf 0d 00    	jmp    *0xdcf7a(%rip)        # df080 <omTensorGetDataPtr@@Base+0xd2305>
    2106:	68 0d 00 00 00       	push   $0xd
    210b:	e9 10 ff ff ff       	jmp    2020 <_init+0x20>

0000000000002110 <free@plt>:
    2110:	ff 25 72 cf 0d 00    	jmp    *0xdcf72(%rip)        # df088 <free@GLIBC_2.2.5>
    2116:	68 0e 00 00 00       	push   $0xe
    211b:	e9 00 ff ff ff       	jmp    2020 <_init+0x20>

0000000000002120 <strlen@plt>:
    2120:	ff 25 6a cf 0d 00    	jmp    *0xdcf6a(%rip)        # df090 <strlen@GLIBC_2.2.5>
    2126:	68 0f 00 00 00       	push   $0xf
    212b:	e9 f0 fe ff ff       	jmp    2020 <_init+0x20>

0000000000002130 <expf@plt>:
    2130:	ff 25 62 cf 0d 00    	jmp    *0xdcf62(%rip)        # df098 <expf@GLIBC_2.27>
    2136:	68 10 00 00 00       	push   $0x10
    213b:	e9 e0 fe ff ff       	jmp    2020 <_init+0x20>

0000000000002140 <om_f16_to_f32@plt>:
    2140:	ff 25 5a cf 0d 00    	jmp    *0xdcf5a(%rip)        # df0a0 <om_f16_to_f32@@Base+0xd1429>
    2146:	68 11 00 00 00       	push   $0x11
    214b:	e9 d0 fe ff ff       	jmp    2020 <_init+0x20>

0000000000002150 <om_f32_to_f16@plt>:
    2150:	ff 25 52 cf 0d 00    	jmp    *0xdcf52(%rip)        # df0a8 <om_f32_to_f16@@Base+0xd1371>
    2156:	68 12 00 00 00       	push   $0x12
    215b:	e9 c0 fe ff ff       	jmp    2020 <_init+0x20>

0000000000002160 <Conv2D_bias@plt>:
    2160:	ff 25 4a cf 0d 00    	jmp    *0xdcf4a(%rip)        # df0b0 <Conv2D_bias@Base>
    2166:	68 13 00 00 00       	push   $0x13
    216b:	e9 b0 fe ff ff       	jmp    2020 <_init+0x20>

0000000000002170 <main_graph_mobilenet@plt>:
    2170:	ff 25 42 cf 0d 00    	jmp    *0xdcf42(%rip)        # df0b8 <main_graph_mobilenet@@Base+0xdcde8>
    2176:	68 14 00 00 00       	push   $0x14
    217b:	e9 a0 fe ff ff       	jmp    2020 <_init+0x20>

0000000000002180 <__stack_chk_fail@plt>:
    2180:	ff 25 3a cf 0d 00    	jmp    *0xdcf3a(%rip)        # df0c0 <__stack_chk_fail@GLIBC_2.4>
    2186:	68 15 00 00 00       	push   $0x15
    218b:	e9 90 fe ff ff       	jmp    2020 <_init+0x20>

0000000000002190 <AveragePool@plt>:
    2190:	ff 25 32 cf 0d 00    	jmp    *0xdcf32(%rip)        # df0c8 <AveragePool@Base>
    2196:	68 16 00 00 00       	push   $0x16
    219b:	e9 80 fe ff ff       	jmp    2020 <_init+0x20>

00000000000021a0 <omTensorCreateUntyped@plt>:
    21a0:	ff 25 2a cf 0d 00    	jmp    *0xdcf2a(%rip)        # df0d0 <omTensorCreateUntyped@@Base+0xd253b>
    21a6:	68 17 00 00 00       	push   $0x17
    21ab:	e9 70 fe ff ff       	jmp    2020 <_init+0x20>

00000000000021b0 <omTensorDestroy@plt>:
    21b0:	ff 25 22 cf 0d 00    	jmp    *0xdcf22(%rip)        # df0d8 <omTensorDestroy@@Base+0xd23c1>
    21b6:	68 18 00 00 00       	push   $0x18
    21bb:	e9 60 fe ff ff       	jmp    2020 <_init+0x20>

00000000000021c0 <run_main_graph_mobilenet@plt>:
    21c0:	ff 25 1a cf 0d 00    	jmp    *0xdcf1a(%rip)        # df0e0 <run_main_graph_mobilenet@@Base+0xd2ef0>
    21c6:	68 19 00 00 00       	push   $0x19
    21cb:	e9 50 fe ff ff       	jmp    2020 <_init+0x20>

00000000000021d0 <omTensorGetShape@plt>:
    21d0:	ff 25 12 cf 0d 00    	jmp    *0xdcf12(%rip)        # df0e8 <omTensorGetShape@@Base+0xd22e4>
    21d6:	68 1a 00 00 00       	push   $0x1a
    21db:	e9 40 fe ff ff       	jmp    2020 <_init+0x20>

00000000000021e0 <memcpy@plt>:
    21e0:	ff 25 0a cf 0d 00    	jmp    *0xdcf0a(%rip)        # df0f0 <memcpy@GLIBC_2.14>
    21e6:	68 1b 00 00 00       	push   $0x1b
    21eb:	e9 30 fe ff ff       	jmp    2020 <_init+0x20>

00000000000021f0 <Relu@plt>:
    21f0:	ff 25 02 cf 0d 00    	jmp    *0xdcf02(%rip)        # df0f8 <Relu@Base>
    21f6:	68 1c 00 00 00       	push   $0x1c
    21fb:	e9 20 fe ff ff       	jmp    2020 <_init+0x20>

Disassembly of section .plt.got:

0000000000002200 <__cxa_finalize@plt>:
    2200:	ff 25 b2 cd 0d 00    	jmp    *0xdcdb2(%rip)        # defb8 <__cxa_finalize@GLIBC_2.2.5>
    2206:	66 90                	xchg   %ax,%ax

Disassembly of section .text:

0000000000002210 <deregister_tm_clones>:
    2210:	48 8d 3d 91 cf 0d 00 	lea    0xdcf91(%rip),%rdi        # df1a8 <completed.0>
    2217:	48 8d 05 8a cf 0d 00 	lea    0xdcf8a(%rip),%rax        # df1a8 <completed.0>
    221e:	48 39 f8             	cmp    %rdi,%rax
    2221:	74 15                	je     2238 <deregister_tm_clones+0x28>
    2223:	48 8b 05 7e cd 0d 00 	mov    0xdcd7e(%rip),%rax        # defa8 <_ITM_deregisterTMCloneTable@Base>
    222a:	48 85 c0             	test   %rax,%rax
    222d:	74 09                	je     2238 <deregister_tm_clones+0x28>
    222f:	ff e0                	jmp    *%rax
    2231:	0f 1f 80 00 00 00 00 	nopl   0x0(%rax)
    2238:	c3                   	ret    
    2239:	0f 1f 80 00 00 00 00 	nopl   0x0(%rax)

0000000000002240 <register_tm_clones>:
    2240:	48 8d 3d 61 cf 0d 00 	lea    0xdcf61(%rip),%rdi        # df1a8 <completed.0>
    2247:	48 8d 35 5a cf 0d 00 	lea    0xdcf5a(%rip),%rsi        # df1a8 <completed.0>
    224e:	48 29 fe             	sub    %rdi,%rsi
    2251:	48 89 f0             	mov    %rsi,%rax
    2254:	48 c1 ee 3f          	shr    $0x3f,%rsi
    2258:	48 c1 f8 03          	sar    $0x3,%rax
    225c:	48 01 c6             	add    %rax,%rsi
    225f:	48 d1 fe             	sar    %rsi
    2262:	74 14                	je     2278 <register_tm_clones+0x38>
    2264:	48 8b 05 45 cd 0d 00 	mov    0xdcd45(%rip),%rax        # defb0 <_ITM_registerTMCloneTable@Base>
    226b:	48 85 c0             	test   %rax,%rax
    226e:	74 08                	je     2278 <register_tm_clones+0x38>
    2270:	ff e0                	jmp    *%rax
    2272:	66 0f 1f 44 00 00    	nopw   0x0(%rax,%rax,1)
    2278:	c3                   	ret    
    2279:	0f 1f 80 00 00 00 00 	nopl   0x0(%rax)

0000000000002280 <__do_global_dtors_aux>:
    2280:	f3 0f 1e fa          	endbr64 
    2284:	80 3d 1d cf 0d 00 00 	cmpb   $0x0,0xdcf1d(%rip)        # df1a8 <completed.0>
    228b:	75 2b                	jne    22b8 <__do_global_dtors_aux+0x38>
    228d:	55                   	push   %rbp
    228e:	48 83 3d 22 cd 0d 00 	cmpq   $0x0,0xdcd22(%rip)        # defb8 <__cxa_finalize@GLIBC_2.2.5>
    2295:	00 
    2296:	48 89 e5             	mov    %rsp,%rbp
    2299:	74 0c                	je     22a7 <__do_global_dtors_aux+0x27>
    229b:	48 8b 3d 5e ce 0d 00 	mov    0xdce5e(%rip),%rdi        # df100 <__dso_handle>
    22a2:	e8 59 ff ff ff       	call   2200 <__cxa_finalize@plt>
    22a7:	e8 64 ff ff ff       	call   2210 <deregister_tm_clones>
    22ac:	c6 05 f5 ce 0d 00 01 	movb   $0x1,0xdcef5(%rip)        # df1a8 <completed.0>
    22b3:	5d                   	pop    %rbp
    22b4:	c3                   	ret    
    22b5:	0f 1f 00             	nopl   (%rax)
    22b8:	c3                   	ret    
    22b9:	0f 1f 80 00 00 00 00 	nopl   0x0(%rax)

00000000000022c0 <frame_dummy>:
    22c0:	f3 0f 1e fa          	endbr64 
    22c4:	e9 77 ff ff ff       	jmp    2240 <register_tm_clones>
    22c9:	0f 1f 80 00 00 00 00 	nopl   0x0(%rax)

00000000000022d0 <main_graph_mobilenet>:
    22d0:	55                   	push   %rbp
    22d1:	41 57                	push   %r15
    22d3:	41 56                	push   %r14
    22d5:	41 55                	push   %r13
    22d7:	41 54                	push   %r12
    22d9:	53                   	push   %rbx
    22da:	48 81 ec b8 02 00 00 	sub    $0x2b8,%rsp
    22e1:	4c 89 c3             	mov    %r8,%rbx
    22e4:	49 89 d6             	mov    %rdx,%r14
    22e7:	48 89 bc 24 28 02 00 	mov    %rdi,0x228(%rsp)
    22ee:	00 
    22ef:	49 69 f8 00 b0 01 00 	imul   $0x1b000,%r8,%rdi
    22f6:	48 83 cf 10          	or     $0x10,%rdi
    22fa:	e8 d1 fd ff ff       	call   20d0 <malloc@plt>
    22ff:	48 89 c5             	mov    %rax,%rbp
    2302:	48 89 44 24 30       	mov    %rax,0x30(%rsp)
    2307:	48 83 c5 0f          	add    $0xf,%rbp
    230b:	48 83 e5 f0          	and    $0xfffffffffffffff0,%rbp
    230f:	48 89 5c 24 20       	mov    %rbx,0x20(%rsp)
    2314:	48 85 db             	test   %rbx,%rbx
    2317:	0f 8e 80 01 00 00    	jle    249d <main_graph_mobilenet+0x1cd>
    231d:	4c 8d 9d 00 20 01 00 	lea    0x12000(%rbp),%r11
    2324:	4d 8d 56 08          	lea    0x8(%r14),%r10
    2328:	31 d2                	xor    %edx,%edx
    232a:	4c 89 f3             	mov    %r14,%rbx
    232d:	eb 2d                	jmp    235c <main_graph_mobilenet+0x8c>
    232f:	90                   	nop
    2330:	48 ff c2             	inc    %rdx
    2333:	48 81 c3 00 b0 01 00 	add    $0x1b000,%rbx
    233a:	4c 8b 5c 24 10       	mov    0x10(%rsp),%r11
    233f:	49 81 c3 00 b0 01 00 	add    $0x1b000,%r11
    2346:	4c 8b 14 24          	mov    (%rsp),%r10
    234a:	49 81 c2 00 b0 01 00 	add    $0x1b000,%r10
    2351:	48 3b 54 24 20       	cmp    0x20(%rsp),%rdx
    2356:	0f 84 41 01 00 00    	je     249d <main_graph_mobilenet+0x1cd>
    235c:	48 69 fa 00 b0 01 00 	imul   $0x1b000,%rdx,%rdi
    2363:	4c 8d 87 80 21 01 00 	lea    0x12180(%rdi),%r8
    236a:	4c 8d 8f 80 04 00 00 	lea    0x480(%rdi),%r9
    2371:	4c 89 14 24          	mov    %r10,(%rsp)
    2375:	4c 89 5c 24 10       	mov    %r11,0x10(%rsp)
    237a:	48 89 de             	mov    %rbx,%rsi
    237d:	45 31 e4             	xor    %r12d,%r12d
    2380:	eb 2c                	jmp    23ae <main_graph_mobilenet+0xde>
    2382:	66 2e 0f 1f 84 00 00 	cs nopw 0x0(%rax,%rax,1)
    2389:	00 00 00 
    238c:	0f 1f 40 00          	nopl   0x0(%rax)
    2390:	49 ff c4             	inc    %r12
    2393:	48 81 c6 80 04 00 00 	add    $0x480,%rsi
    239a:	49 81 c3 80 01 00 00 	add    $0x180,%r11
    23a1:	49 81 c2 80 04 00 00 	add    $0x480,%r10
    23a8:	49 83 fc 60          	cmp    $0x60,%r12
    23ac:	74 82                	je     2330 <main_graph_mobilenet+0x60>
    23ae:	4d 89 e5             	mov    %r12,%r13
    23b1:	49 c1 e5 07          	shl    $0x7,%r13
    23b5:	4f 8d 7c ed 00       	lea    0x0(%r13,%r13,8),%r15
    23ba:	4b 8d 04 0e          	lea    (%r14,%r9,1),%rax
    23be:	4c 01 f8             	add    %r15,%rax
    23c1:	4f 8d 6c 6d 00       	lea    0x0(%r13,%r13,2),%r13
    23c6:	48 8d 4c 3d 00       	lea    0x0(%rbp,%rdi,1),%rcx
    23cb:	4c 01 e9             	add    %r13,%rcx
    23ce:	48 39 c1             	cmp    %rax,%rcx
    23d1:	73 5d                	jae    2430 <main_graph_mobilenet+0x160>
    23d3:	4d 01 f7             	add    %r14,%r15
    23d6:	49 01 ff             	add    %rdi,%r15
    23d9:	49 01 ed             	add    %rbp,%r13
    23dc:	4d 01 c5             	add    %r8,%r13
    23df:	4d 39 ef             	cmp    %r13,%r15
    23e2:	73 4c                	jae    2430 <main_graph_mobilenet+0x160>
    23e4:	49 c7 c7 80 fe ff ff 	mov    $0xfffffffffffffe80,%r15
    23eb:	4d 89 d5             	mov    %r10,%r13
    23ee:	66 90                	xchg   %ax,%ax
    23f0:	f3 41 0f 10 45 f8    	movss  -0x8(%r13),%xmm0
    23f6:	f3 43 0f 11 84 3b 80 	movss  %xmm0,-0x11e80(%r11,%r15,1)
    23fd:	e1 fe ff 
    2400:	f3 41 0f 10 45 fc    	movss  -0x4(%r13),%xmm0
    2406:	f3 43 0f 11 84 3b 80 	movss  %xmm0,-0x8e80(%r11,%r15,1)
    240d:	71 ff ff 
    2410:	f3 41 0f 10 45 00    	movss  0x0(%r13),%xmm0
    2416:	f3 43 0f 11 84 3b 80 	movss  %xmm0,0x180(%r11,%r15,1)
    241d:	01 00 00 
    2420:	49 83 c5 0c          	add    $0xc,%r13
    2424:	49 83 c7 04          	add    $0x4,%r15
    2428:	75 c6                	jne    23f0 <main_graph_mobilenet+0x120>
    242a:	e9 61 ff ff ff       	jmp    2390 <main_graph_mobilenet+0xc0>
    242f:	90                   	nop
    2430:	49 c7 c5 a0 ff ff ff 	mov    $0xffffffffffffffa0,%r13
    2437:	49 89 f7             	mov    %rsi,%r15
    243a:	66 0f 1f 44 00 00    	nopw   0x0(%rax,%rax,1)
    2440:	41 0f 10 07          	movups (%r15),%xmm0
    2444:	41 0f 10 4f 10       	movups 0x10(%r15),%xmm1
    2449:	41 0f 10 57 20       	movups 0x20(%r15),%xmm2
    244e:	0f 28 da             	movaps %xmm2,%xmm3
    2451:	0f c6 d9 21          	shufps $0x21,%xmm1,%xmm3
    2455:	0f 28 e2             	movaps %xmm2,%xmm4
    2458:	0f c6 e1 f6          	shufps $0xf6,%xmm1,%xmm4
    245c:	0f 28 e8             	movaps %xmm0,%xmm5
    245f:	0f c6 e9 01          	shufps $0x1,%xmm1,%xmm5
    2463:	0f c6 c8 21          	shufps $0x21,%xmm0,%xmm1
    2467:	0f c6 c3 2c          	shufps $0x2c,%xmm3,%xmm0
    246b:	0f c6 ec 28          	shufps $0x28,%xmm4,%xmm5
    246f:	0f c6 ca c2          	shufps $0xc2,%xmm2,%xmm1
    2473:	43 0f 29 84 ab 80 e1 	movaps %xmm0,-0x11e80(%r11,%r13,4)
    247a:	fe ff 
    247c:	43 0f 29 ac ab 80 71 	movaps %xmm5,-0x8e80(%r11,%r13,4)
    2483:	ff ff 
    2485:	43 0f 29 8c ab 80 01 	movaps %xmm1,0x180(%r11,%r13,4)
    248c:	00 00 
    248e:	49 83 c7 30          	add    $0x30,%r15
    2492:	49 83 c5 04          	add    $0x4,%r13
    2496:	75 a8                	jne    2440 <main_graph_mobilenet+0x170>
    2498:	e9 f3 fe ff ff       	jmp    2390 <main_graph_mobilenet+0xc0>
    249d:	48 8b 54 24 20       	mov    0x20(%rsp),%rdx
    24a2:	48 89 d0             	mov    %rdx,%rax
    24a5:	48 c1 e0 0b          	shl    $0xb,%rax
    24a9:	48 8d 0c c0          	lea    (%rax,%rax,8),%rcx
    24ad:	48 8d 04 d5 00 00 00 	lea    0x0(,%rdx,8),%rax
    24b4:	00 
    24b5:	48 83 fa ff          	cmp    $0xffffffffffffffff,%rdx
    24b9:	48 89 d7             	mov    %rdx,%rdi
    24bc:	be 08 00 00 00       	mov    $0x8,%esi
    24c1:	48 0f 45 f0          	cmovne %rax,%rsi
    24c5:	48 89 f0             	mov    %rsi,%rax
    24c8:	48 f7 d0             	not    %rax
    24cb:	48 c1 f8 3f          	sar    $0x3f,%rax
    24cf:	48 83 c8 01          	or     $0x1,%rax
    24d3:	48 29 c8             	sub    %rcx,%rax
    24d6:	48 99                	cqto   
    24d8:	48 f7 fe             	idiv   %rsi
    24db:	48 89 c3             	mov    %rax,%rbx
    24de:	48 f7 d3             	not    %rbx
    24e1:	48 89 c8             	mov    %rcx,%rax
    24e4:	48 99                	cqto   
    24e6:	48 f7 fe             	idiv   %rsi
    24e9:	48 85 f6             	test   %rsi,%rsi
    24ec:	48 89 c2             	mov    %rax,%rdx
    24ef:	48 0f 48 d3          	cmovs  %rbx,%rdx
    24f3:	48 85 c9             	test   %rcx,%rcx
    24f6:	48 0f 4e d0          	cmovle %rax,%rdx
    24fa:	48 85 f6             	test   %rsi,%rsi
    24fd:	48 0f 4e da          	cmovle %rdx,%rbx
    2501:	48 85 c9             	test   %rcx,%rcx
    2504:	48 0f 49 da          	cmovns %rdx,%rbx
    2508:	48 83 ff ff          	cmp    $0xffffffffffffffff,%rdi
    250c:	48 89 f8             	mov    %rdi,%rax
    250f:	48 0f 44 c3          	cmove  %rbx,%rax
    2513:	48 89 84 24 e8 00 00 	mov    %rax,0xe8(%rsp)
    251a:	00 
    251b:	48 89 f8             	mov    %rdi,%rax
    251e:	49 89 fe             	mov    %rdi,%r14
    2521:	48 c1 e0 0d          	shl    $0xd,%rax
    2525:	48 8d 7c c0 10       	lea    0x10(%rax,%rax,8),%rdi
    252a:	48 89 7c 24 10       	mov    %rdi,0x10(%rsp)
    252f:	e8 9c fb ff ff       	call   20d0 <malloc@plt>
    2534:	49 89 c7             	mov    %rax,%r15
    2537:	4c 8d 60 0f          	lea    0xf(%rax),%r12
    253b:	48 89 44 24 40       	mov    %rax,0x40(%rsp)
    2540:	49 83 e4 f0          	and    $0xfffffffffffffff0,%r12
    2544:	4c 89 64 24 60       	mov    %r12,0x60(%rsp)
    2549:	bf 04 00 00 00       	mov    $0x4,%edi
    254e:	e8 4d fc ff ff       	call   21a0 <omTensorCreateUntyped@plt>
    2553:	49 89 c5             	mov    %rax,%r13
    2556:	48 89 04 24          	mov    %rax,(%rsp)
    255a:	48 89 c7             	mov    %rax,%rdi
    255d:	31 f6                	xor    %esi,%esi
    255f:	4c 89 fa             	mov    %r15,%rdx
    2562:	4c 89 e1             	mov    %r12,%rcx
    2565:	e8 86 fb ff ff       	call   20f0 <omTensorSetDataPtr@plt>
    256a:	be 01 00 00 00       	mov    $0x1,%esi
    256f:	4c 89 ef             	mov    %r13,%rdi
    2572:	e8 29 fb ff ff       	call   20a0 <omTensorSetDataType@plt>
    2577:	4c 89 ef             	mov    %r13,%rdi
    257a:	e8 51 fc ff ff       	call   21d0 <omTensorGetShape@plt>
    257f:	49 89 c7             	mov    %rax,%r15
    2582:	4c 89 ef             	mov    %r13,%rdi
    2585:	e8 e6 fa ff ff       	call   2070 <omTensorGetStrides@plt>
    258a:	4d 89 37             	mov    %r14,(%r15)
    258d:	4d 89 f4             	mov    %r14,%r12
    2590:	48 c7 00 00 48 00 00 	movq   $0x4800,(%rax)
    2597:	49 c7 47 08 08 00 00 	movq   $0x8,0x8(%r15)
    259e:	00 
    259f:	48 c7 40 08 00 09 00 	movq   $0x900,0x8(%rax)
    25a6:	00 
    25a7:	49 c7 47 10 30 00 00 	movq   $0x30,0x10(%r15)
    25ae:	00 
    25af:	48 c7 40 10 30 00 00 	movq   $0x30,0x10(%rax)
    25b6:	00 
    25b7:	49 c7 47 18 30 00 00 	movq   $0x30,0x18(%r15)
    25be:	00 
    25bf:	48 c7 40 18 01 00 00 	movq   $0x1,0x18(%rax)
    25c6:	00 
    25c7:	bf 04 00 00 00       	mov    $0x4,%edi
    25cc:	e8 cf fb ff ff       	call   21a0 <omTensorCreateUntyped@plt>
    25d1:	49 89 c5             	mov    %rax,%r13
    25d4:	48 89 c7             	mov    %rax,%rdi
    25d7:	31 f6                	xor    %esi,%esi
    25d9:	4c 8b 74 24 30       	mov    0x30(%rsp),%r14
    25de:	4c 89 f2             	mov    %r14,%rdx
    25e1:	48 89 e9             	mov    %rbp,%rcx
    25e4:	e8 07 fb ff ff       	call   20f0 <omTensorSetDataPtr@plt>
    25e9:	be 01 00 00 00       	mov    $0x1,%esi
    25ee:	4c 89 ef             	mov    %r13,%rdi
    25f1:	e8 aa fa ff ff       	call   20a0 <omTensorSetDataType@plt>
    25f6:	4c 89 ef             	mov    %r13,%rdi
    25f9:	e8 d2 fb ff ff       	call   21d0 <omTensorGetShape@plt>
    25fe:	49 89 c7             	mov    %rax,%r15
    2601:	4c 89 ef             	mov    %r13,%rdi
    2604:	e8 67 fa ff ff       	call   2070 <omTensorGetStrides@plt>
    2609:	4d 89 27             	mov    %r12,(%r15)
    260c:	48 c7 00 00 6c 00 00 	movq   $0x6c00,(%rax)
    2613:	49 c7 47 08 03 00 00 	movq   $0x3,0x8(%r15)
    261a:	00 
    261b:	48 c7 40 08 00 24 00 	movq   $0x2400,0x8(%rax)
    2622:	00 
    2623:	49 c7 47 10 60 00 00 	movq   $0x60,0x10(%r15)
    262a:	00 
    262b:	48 c7 40 10 60 00 00 	movq   $0x60,0x10(%rax)
    2632:	00 
    2633:	49 c7 47 18 60 00 00 	movq   $0x60,0x18(%r15)
    263a:	00 
    263b:	48 c7 40 18 01 00 00 	movq   $0x1,0x18(%rax)
    2642:	00 
    2643:	4c 8d 3d 06 35 01 00 	lea    0x13506(%rip),%r15        # 15b50 <constant_58_mobilenet>
    264a:	bf 04 00 00 00       	mov    $0x4,%edi
    264f:	e8 4c fb ff ff       	call   21a0 <omTensorCreateUntyped@plt>
    2654:	48 89 c5             	mov    %rax,%rbp
    2657:	48 89 c7             	mov    %rax,%rdi
    265a:	31 f6                	xor    %esi,%esi
    265c:	4c 89 fa             	mov    %r15,%rdx
    265f:	4c 89 f9             	mov    %r15,%rcx
    2662:	e8 89 fa ff ff       	call   20f0 <omTensorSetDataPtr@plt>
    2667:	be 01 00 00 00       	mov    $0x1,%esi
    266c:	48 89 ef             	mov    %rbp,%rdi
    266f:	e8 2c fa ff ff       	call   20a0 <omTensorSetDataType@plt>
    2674:	48 89 ef             	mov    %rbp,%rdi
    2677:	e8 54 fb ff ff       	call   21d0 <omTensorGetShape@plt>
    267c:	49 89 c7             	mov    %rax,%r15
    267f:	48 89 ef             	mov    %rbp,%rdi
    2682:	e8 e9 f9 ff ff       	call   2070 <omTensorGetStrides@plt>
    2687:	49 c7 07 08 00 00 00 	movq   $0x8,(%r15)
    268e:	48 c7 00 1b 00 00 00 	movq   $0x1b,(%rax)
    2695:	49 c7 47 08 03 00 00 	movq   $0x3,0x8(%r15)
    269c:	00 
    269d:	48 c7 40 08 09 00 00 	movq   $0x9,0x8(%rax)
    26a4:	00 
    26a5:	49 c7 47 10 03 00 00 	movq   $0x3,0x10(%r15)
    26ac:	00 
    26ad:	48 c7 40 10 03 00 00 	movq   $0x3,0x10(%rax)
    26b4:	00 
    26b5:	49 c7 47 18 03 00 00 	movq   $0x3,0x18(%r15)
    26bc:	00 
    26bd:	48 c7 40 18 01 00 00 	movq   $0x1,0x18(%rax)
    26c4:	00 
    26c5:	4c 8d 25 c4 75 01 00 	lea    0x175c4(%rip),%r12        # 19c90 <constant_52_mobilenet>
    26cc:	bf 01 00 00 00       	mov    $0x1,%edi
    26d1:	e8 ca fa ff ff       	call   21a0 <omTensorCreateUntyped@plt>
    26d6:	49 89 c7             	mov    %rax,%r15
    26d9:	48 89 c7             	mov    %rax,%rdi
    26dc:	31 f6                	xor    %esi,%esi
    26de:	4c 89 e2             	mov    %r12,%rdx
    26e1:	4c 89 e1             	mov    %r12,%rcx
    26e4:	e8 07 fa ff ff       	call   20f0 <omTensorSetDataPtr@plt>
    26e9:	be 01 00 00 00       	mov    $0x1,%esi
    26ee:	4c 89 ff             	mov    %r15,%rdi
    26f1:	e8 aa f9 ff ff       	call   20a0 <omTensorSetDataType@plt>
    26f6:	4c 89 ff             	mov    %r15,%rdi
    26f9:	e8 d2 fa ff ff       	call   21d0 <omTensorGetShape@plt>
    26fe:	49 89 c4             	mov    %rax,%r12
    2701:	4c 89 ff             	mov    %r15,%rdi
    2704:	e8 67 f9 ff ff       	call   2070 <omTensorGetStrides@plt>
    2709:	49 c7 04 24 08 00 00 	movq   $0x8,(%r12)
    2710:	00 
    2711:	48 c7 00 01 00 00 00 	movq   $0x1,(%rax)
    2718:	4c 8b 24 24          	mov    (%rsp),%r12
    271c:	4c 89 e7             	mov    %r12,%rdi
    271f:	4c 89 ee             	mov    %r13,%rsi
    2722:	48 89 ea             	mov    %rbp,%rdx
    2725:	4c 89 f9             	mov    %r15,%rcx
    2728:	45 31 c0             	xor    %r8d,%r8d
    272b:	45 31 c9             	xor    %r9d,%r9d
    272e:	6a 02                	push   $0x2
    2730:	6a 02                	push   $0x2
    2732:	6a 01                	push   $0x1
    2734:	6a 01                	push   $0x1
    2736:	e8 25 fa ff ff       	call   2160 <Conv2D_bias@plt>
    273b:	48 83 c4 20          	add    $0x20,%rsp
    273f:	4c 89 e7             	mov    %r12,%rdi
    2742:	e8 69 fa ff ff       	call   21b0 <omTensorDestroy@plt>
    2747:	4c 89 ef             	mov    %r13,%rdi
    274a:	e8 61 fa ff ff       	call   21b0 <omTensorDestroy@plt>
    274f:	48 89 ef             	mov    %rbp,%rdi
    2752:	e8 59 fa ff ff       	call   21b0 <omTensorDestroy@plt>
    2757:	4c 89 ff             	mov    %r15,%rdi
    275a:	e8 51 fa ff ff       	call   21b0 <omTensorDestroy@plt>
    275f:	4c 89 f7             	mov    %r14,%rdi
    2762:	e8 a9 f9 ff ff       	call   2110 <free@plt>
    2767:	48 8b 7c 24 10       	mov    0x10(%rsp),%rdi
    276c:	e8 5f f9 ff ff       	call   20d0 <malloc@plt>
    2771:	49 89 c7             	mov    %rax,%r15
    2774:	4c 8d 70 0f          	lea    0xf(%rax),%r14
    2778:	48 89 04 24          	mov    %rax,(%rsp)
    277c:	49 83 e6 f0          	and    $0xfffffffffffffff0,%r14
    2780:	4c 89 74 24 08       	mov    %r14,0x8(%rsp)
    2785:	bf 04 00 00 00       	mov    $0x4,%edi
    278a:	e8 11 fa ff ff       	call   21a0 <omTensorCreateUntyped@plt>
    278f:	49 89 c5             	mov    %rax,%r13
    2792:	48 89 c7             	mov    %rax,%rdi
    2795:	31 f6                	xor    %esi,%esi
    2797:	4c 89 fa             	mov    %r15,%rdx
    279a:	4c 89 f1             	mov    %r14,%rcx
    279d:	e8 4e f9 ff ff       	call   20f0 <omTensorSetDataPtr@plt>
    27a2:	be 01 00 00 00       	mov    $0x1,%esi
    27a7:	4c 89 ef             	mov    %r13,%rdi
    27aa:	e8 f1 f8 ff ff       	call   20a0 <omTensorSetDataType@plt>
    27af:	4c 89 ef             	mov    %r13,%rdi
    27b2:	e8 19 fa ff ff       	call   21d0 <omTensorGetShape@plt>
    27b7:	49 89 c7             	mov    %rax,%r15
    27ba:	4c 89 ef             	mov    %r13,%rdi
    27bd:	e8 ae f8 ff ff       	call   2070 <omTensorGetStrides@plt>
    27c2:	4c 8b 74 24 20       	mov    0x20(%rsp),%r14
    27c7:	4d 89 37             	mov    %r14,(%r15)
    27ca:	48 c7 00 00 48 00 00 	movq   $0x4800,(%rax)
    27d1:	49 c7 47 08 08 00 00 	movq   $0x8,0x8(%r15)
    27d8:	00 
    27d9:	48 c7 40 08 00 09 00 	movq   $0x900,0x8(%rax)
    27e0:	00 
    27e1:	49 c7 47 10 30 00 00 	movq   $0x30,0x10(%r15)
    27e8:	00 
    27e9:	48 c7 40 10 30 00 00 	movq   $0x30,0x10(%rax)
    27f0:	00 
    27f1:	49 c7 47 18 30 00 00 	movq   $0x30,0x18(%r15)
    27f8:	00 
    27f9:	48 c7 40 18 01 00 00 	movq   $0x1,0x18(%rax)
    2800:	00 
    2801:	bf 04 00 00 00       	mov    $0x4,%edi
    2806:	e8 95 f9 ff ff       	call   21a0 <omTensorCreateUntyped@plt>
    280b:	49 89 c7             	mov    %rax,%r15
    280e:	48 89 c7             	mov    %rax,%rdi
    2811:	31 f6                	xor    %esi,%esi
    2813:	4c 8b 64 24 40       	mov    0x40(%rsp),%r12
    2818:	4c 89 e2             	mov    %r12,%rdx
    281b:	48 8b 4c 24 60       	mov    0x60(%rsp),%rcx
    2820:	e8 cb f8 ff ff       	call   20f0 <omTensorSetDataPtr@plt>
    2825:	be 01 00 00 00       	mov    $0x1,%esi
    282a:	4c 89 ff             	mov    %r15,%rdi
    282d:	e8 6e f8 ff ff       	call   20a0 <omTensorSetDataType@plt>
    2832:	4c 89 ff             	mov    %r15,%rdi
    2835:	e8 96 f9 ff ff       	call   21d0 <omTensorGetShape@plt>
    283a:	48 89 c5             	mov    %rax,%rbp
    283d:	4c 89 ff             	mov    %r15,%rdi
    2840:	e8 2b f8 ff ff       	call   2070 <omTensorGetStrides@plt>
    2845:	4c 89 75 00          	mov    %r14,0x0(%rbp)
    2849:	48 c7 00 00 48 00 00 	movq   $0x4800,(%rax)
    2850:	48 c7 45 08 08 00 00 	movq   $0x8,0x8(%rbp)
    2857:	00 
    2858:	48 c7 40 08 00 09 00 	movq   $0x900,0x8(%rax)
    285f:	00 
    2860:	48 c7 45 10 30 00 00 	movq   $0x30,0x10(%rbp)
    2867:	00 
    2868:	48 c7 40 10 30 00 00 	movq   $0x30,0x10(%rax)
    286f:	00 
    2870:	48 c7 45 18 30 00 00 	movq   $0x30,0x18(%rbp)
    2877:	00 
    2878:	48 c7 40 18 01 00 00 	movq   $0x1,0x18(%rax)
    287f:	00 
    2880:	4c 89 ef             	mov    %r13,%rdi
    2883:	4c 89 fe             	mov    %r15,%rsi
    2886:	e8 65 f9 ff ff       	call   21f0 <Relu@plt>
    288b:	4c 89 ef             	mov    %r13,%rdi
    288e:	e8 1d f9 ff ff       	call   21b0 <omTensorDestroy@plt>
    2893:	4c 89 ff             	mov    %r15,%rdi
    2896:	e8 15 f9 ff ff       	call   21b0 <omTensorDestroy@plt>
    289b:	4c 89 e7             	mov    %r12,%rdi
    289e:	e8 6d f8 ff ff       	call   2110 <free@plt>
    28a3:	48 8b 7c 24 10       	mov    0x10(%rsp),%rdi
    28a8:	e8 23 f8 ff ff       	call   20d0 <malloc@plt>
    28ad:	49 89 c6             	mov    %rax,%r14
    28b0:	4c 8d 78 0f          	lea    0xf(%rax),%r15
    28b4:	48 89 44 24 60       	mov    %rax,0x60(%rsp)
    28b9:	49 83 e7 f0          	and    $0xfffffffffffffff0,%r15
    28bd:	4c 89 7c 24 30       	mov    %r15,0x30(%rsp)
    28c2:	bf 04 00 00 00       	mov    $0x4,%edi
    28c7:	e8 d4 f8 ff ff       	call   21a0 <omTensorCreateUntyped@plt>
    28cc:	49 89 c4             	mov    %rax,%r12
    28cf:	48 89 c7             	mov    %rax,%rdi
    28d2:	31 f6                	xor    %esi,%esi
    28d4:	4c 89 f2             	mov    %r14,%rdx
    28d7:	4c 89 f9             	mov    %r15,%rcx
    28da:	e8 11 f8 ff ff       	call   20f0 <omTensorSetDataPtr@plt>
    28df:	be 01 00 00 00       	mov    $0x1,%esi
    28e4:	4c 89 64 24 40       	mov    %r12,0x40(%rsp)
    28e9:	4c 89 e7             	mov    %r12,%rdi
    28ec:	e8 af f7 ff ff       	call   20a0 <omTensorSetDataType@plt>
    28f1:	4c 89 e7             	mov    %r12,%rdi
    28f4:	e8 d7 f8 ff ff       	call   21d0 <omTensorGetShape@plt>
    28f9:	49 89 c5             	mov    %rax,%r13
    28fc:	4c 89 e7             	mov    %r12,%rdi
    28ff:	e8 6c f7 ff ff       	call   2070 <omTensorGetStrides@plt>
    2904:	4c 8b 74 24 20       	mov    0x20(%rsp),%r14
    2909:	4d 89 75 00          	mov    %r14,0x0(%r13)
    290d:	48 c7 00 00 48 00 00 	movq   $0x4800,(%rax)
    2914:	49 c7 45 08 08 00 00 	movq   $0x8,0x8(%r13)
    291b:	00 
    291c:	48 c7 40 08 00 09 00 	movq   $0x900,0x8(%rax)
    2923:	00 
    2924:	49 c7 45 10 30 00 00 	movq   $0x30,0x10(%r13)
    292b:	00 
    292c:	48 c7 40 10 30 00 00 	movq   $0x30,0x10(%rax)
    2933:	00 
    2934:	49 c7 45 18 30 00 00 	movq   $0x30,0x18(%r13)
    293b:	00 
    293c:	48 c7 40 18 01 00 00 	movq   $0x1,0x18(%rax)
    2943:	00 
    2944:	bf 04 00 00 00       	mov    $0x4,%edi
    2949:	e8 52 f8 ff ff       	call   21a0 <omTensorCreateUntyped@plt>
    294e:	49 89 c5             	mov    %rax,%r13
    2951:	48 89 c7             	mov    %rax,%rdi
    2954:	31 f6                	xor    %esi,%esi
    2956:	48 8b 14 24          	mov    (%rsp),%rdx
    295a:	48 8b 4c 24 08       	mov    0x8(%rsp),%rcx
    295f:	e8 8c f7 ff ff       	call   20f0 <omTensorSetDataPtr@plt>
    2964:	be 01 00 00 00       	mov    $0x1,%esi
    2969:	4c 89 ef             	mov    %r13,%rdi
    296c:	e8 2f f7 ff ff       	call   20a0 <omTensorSetDataType@plt>
    2971:	4c 89 ef             	mov    %r13,%rdi
    2974:	e8 57 f8 ff ff       	call   21d0 <omTensorGetShape@plt>
    2979:	49 89 c4             	mov    %rax,%r12
    297c:	4c 89 ef             	mov    %r13,%rdi
    297f:	e8 ec f6 ff ff       	call   2070 <omTensorGetStrides@plt>
    2984:	4d 89 34 24          	mov    %r14,(%r12)
    2988:	48 c7 00 00 48 00 00 	movq   $0x4800,(%rax)
    298f:	49 c7 44 24 08 08 00 	movq   $0x8,0x8(%r12)
    2996:	00 00 
    2998:	48 c7 40 08 00 09 00 	movq   $0x900,0x8(%rax)
    299f:	00 
    29a0:	49 c7 44 24 10 30 00 	movq   $0x30,0x10(%r12)
    29a7:	00 00 
    29a9:	48 c7 40 10 30 00 00 	movq   $0x30,0x10(%rax)
    29b0:	00 
    29b1:	49 c7 44 24 18 30 00 	movq   $0x30,0x18(%r12)
    29b8:	00 00 
    29ba:	48 c7 40 18 01 00 00 	movq   $0x1,0x18(%rax)
    29c1:	00 
    29c2:	48 8d 2d a7 71 01 00 	lea    0x171a7(%rip),%rbp        # 19b70 <constant_53_mobilenet>
    29c9:	bf 04 00 00 00       	mov    $0x4,%edi
    29ce:	e8 cd f7 ff ff       	call   21a0 <omTensorCreateUntyped@plt>
    29d3:	49 89 c4             	mov    %rax,%r12
    29d6:	48 89 c7             	mov    %rax,%rdi
    29d9:	31 f6                	xor    %esi,%esi
    29db:	48 89 ea             	mov    %rbp,%rdx
    29de:	48 89 e9             	mov    %rbp,%rcx
    29e1:	e8 0a f7 ff ff       	call   20f0 <omTensorSetDataPtr@plt>
    29e6:	be 01 00 00 00       	mov    $0x1,%esi
    29eb:	4c 89 e7             	mov    %r12,%rdi
    29ee:	e8 ad f6 ff ff       	call   20a0 <omTensorSetDataType@plt>
    29f3:	4c 89 e7             	mov    %r12,%rdi
    29f6:	e8 d5 f7 ff ff       	call   21d0 <omTensorGetShape@plt>
    29fb:	48 89 c5             	mov    %rax,%rbp
    29fe:	4c 89 e7             	mov    %r12,%rdi
    2a01:	e8 6a f6 ff ff       	call   2070 <omTensorGetStrides@plt>
    2a06:	48 c7 45 00 08 00 00 	movq   $0x8,0x0(%rbp)
    2a0d:	00 
    2a0e:	48 c7 00 09 00 00 00 	movq   $0x9,(%rax)
    2a15:	48 c7 45 08 01 00 00 	movq   $0x1,0x8(%rbp)
    2a1c:	00 
    2a1d:	48 c7 40 08 09 00 00 	movq   $0x9,0x8(%rax)
    2a24:	00 
    2a25:	48 c7 45 10 03 00 00 	movq   $0x3,0x10(%rbp)
    2a2c:	00 
    2a2d:	48 c7 40 10 03 00 00 	movq   $0x3,0x10(%rax)
    2a34:	00 
    2a35:	48 c7 45 18 03 00 00 	movq   $0x3,0x18(%rbp)
    2a3c:	00 
    2a3d:	48 c7 40 18 01 00 00 	movq   $0x1,0x18(%rax)
    2a44:	00 
    2a45:	4c 8d 3d 64 72 01 00 	lea    0x17264(%rip),%r15        # 19cb0 <constant_51_mobilenet>
    2a4c:	bf 01 00 00 00       	mov    $0x1,%edi
    2a51:	e8 4a f7 ff ff       	call   21a0 <omTensorCreateUntyped@plt>
    2a56:	48 89 c5             	mov    %rax,%rbp
    2a59:	48 89 c7             	mov    %rax,%rdi
    2a5c:	31 f6                	xor    %esi,%esi
    2a5e:	4c 89 fa             	mov    %r15,%rdx
    2a61:	4c 89 f9             	mov    %r15,%rcx
    2a64:	e8 87 f6 ff ff       	call   20f0 <omTensorSetDataPtr@plt>
    2a69:	be 01 00 00 00       	mov    $0x1,%esi
    2a6e:	48 89 ef             	mov    %rbp,%rdi
    2a71:	e8 2a f6 ff ff       	call   20a0 <omTensorSetDataType@plt>
    2a76:	48 89 ef             	mov    %rbp,%rdi
    2a79:	e8 52 f7 ff ff       	call   21d0 <omTensorGetShape@plt>
    2a7e:	49 89 c7             	mov    %rax,%r15
    2a81:	48 89 ef             	mov    %rbp,%rdi
    2a84:	e8 e7 f5 ff ff       	call   2070 <omTensorGetStrides@plt>
    2a89:	49 c7 07 08 00 00 00 	movq   $0x8,(%r15)
    2a90:	48 c7 00 01 00 00 00 	movq   $0x1,(%rax)
    2a97:	4c 8b 7c 24 40       	mov    0x40(%rsp),%r15
    2a9c:	4c 89 ff             	mov    %r15,%rdi
    2a9f:	4c 89 ee             	mov    %r13,%rsi
    2aa2:	4c 89 e2             	mov    %r12,%rdx
    2aa5:	48 89 e9             	mov    %rbp,%rcx
    2aa8:	41 b8 01 00 00 00    	mov    $0x1,%r8d
    2aae:	41 b9 01 00 00 00    	mov    $0x1,%r9d
    2ab4:	6a 01                	push   $0x1
    2ab6:	6a 01                	push   $0x1
    2ab8:	6a 01                	push   $0x1
    2aba:	6a 01                	push   $0x1
    2abc:	e8 9f f6 ff ff       	call   2160 <Conv2D_bias@plt>
    2ac1:	48 83 c4 20          	add    $0x20,%rsp
    2ac5:	4c 89 ff             	mov    %r15,%rdi
    2ac8:	e8 e3 f6 ff ff       	call   21b0 <omTensorDestroy@plt>
    2acd:	4c 89 ef             	mov    %r13,%rdi
    2ad0:	e8 db f6 ff ff       	call   21b0 <omTensorDestroy@plt>
    2ad5:	4c 89 e7             	mov    %r12,%rdi
    2ad8:	e8 d3 f6 ff ff       	call   21b0 <omTensorDestroy@plt>
    2add:	48 89 ef             	mov    %rbp,%rdi
    2ae0:	e8 cb f6 ff ff       	call   21b0 <omTensorDestroy@plt>
    2ae5:	48 8b 3c 24          	mov    (%rsp),%rdi
    2ae9:	e8 22 f6 ff ff       	call   2110 <free@plt>
    2aee:	48 8b 7c 24 10       	mov    0x10(%rsp),%rdi
    2af3:	e8 d8 f5 ff ff       	call   20d0 <malloc@plt>
    2af8:	49 89 c7             	mov    %rax,%r15
    2afb:	4c 8d 60 0f          	lea    0xf(%rax),%r12
    2aff:	48 89 44 24 10       	mov    %rax,0x10(%rsp)
    2b04:	49 83 e4 f0          	and    $0xfffffffffffffff0,%r12
    2b08:	4c 89 24 24          	mov    %r12,(%rsp)
    2b0c:	bf 04 00 00 00       	mov    $0x4,%edi
    2b11:	e8 8a f6 ff ff       	call   21a0 <omTensorCreateUntyped@plt>
    2b16:	49 89 c5             	mov    %rax,%r13
    2b19:	48 89 c7             	mov    %rax,%rdi
    2b1c:	31 f6                	xor    %esi,%esi
    2b1e:	4c 89 fa             	mov    %r15,%rdx
    2b21:	4c 89 e1             	mov    %r12,%rcx
    2b24:	e8 c7 f5 ff ff       	call   20f0 <omTensorSetDataPtr@plt>
    2b29:	be 01 00 00 00       	mov    $0x1,%esi
    2b2e:	4c 89 ef             	mov    %r13,%rdi
    2b31:	e8 6a f5 ff ff       	call   20a0 <omTensorSetDataType@plt>
    2b36:	4c 89 ef             	mov    %r13,%rdi
    2b39:	e8 92 f6 ff ff       	call   21d0 <omTensorGetShape@plt>
    2b3e:	49 89 c7             	mov    %rax,%r15
    2b41:	4c 89 ef             	mov    %r13,%rdi
    2b44:	e8 27 f5 ff ff       	call   2070 <omTensorGetStrides@plt>
    2b49:	4d 89 37             	mov    %r14,(%r15)
    2b4c:	48 c7 00 00 48 00 00 	movq   $0x4800,(%rax)
    2b53:	49 c7 47 08 08 00 00 	movq   $0x8,0x8(%r15)
    2b5a:	00 
    2b5b:	48 c7 40 08 00 09 00 	movq   $0x900,0x8(%rax)
    2b62:	00 
    2b63:	49 c7 47 10 30 00 00 	movq   $0x30,0x10(%r15)
    2b6a:	00 
    2b6b:	48 c7 40 10 30 00 00 	movq   $0x30,0x10(%rax)
    2b72:	00 
    2b73:	49 c7 47 18 30 00 00 	movq   $0x30,0x18(%r15)
    2b7a:	00 
    2b7b:	48 c7 40 18 01 00 00 	movq   $0x1,0x18(%rax)
    2b82:	00 
    2b83:	bf 04 00 00 00       	mov    $0x4,%edi
    2b88:	e8 13 f6 ff ff       	call   21a0 <omTensorCreateUntyped@plt>
    2b8d:	49 89 c7             	mov    %rax,%r15
    2b90:	48 89 c7             	mov    %rax,%rdi
    2b93:	31 f6                	xor    %esi,%esi
    2b95:	4c 8b 64 24 60       	mov    0x60(%rsp),%r12
    2b9a:	4c 89 e2             	mov    %r12,%rdx
    2b9d:	48 8b 4c 24 30       	mov    0x30(%rsp),%rcx
    2ba2:	e8 49 f5 ff ff       	call   20f0 <omTensorSetDataPtr@plt>
    2ba7:	be 01 00 00 00       	mov    $0x1,%esi
    2bac:	4c 89 ff             	mov    %r15,%rdi
    2baf:	e8 ec f4 ff ff       	call   20a0 <omTensorSetDataType@plt>
    2bb4:	4c 89 ff             	mov    %r15,%rdi
    2bb7:	e8 14 f6 ff ff       	call   21d0 <omTensorGetShape@plt>
    2bbc:	48 89 c5             	mov    %rax,%rbp
    2bbf:	4c 89 ff             	mov    %r15,%rdi
    2bc2:	e8 a9 f4 ff ff       	call   2070 <omTensorGetStrides@plt>
    2bc7:	4c 89 75 00          	mov    %r14,0x0(%rbp)
    2bcb:	48 c7 00 00 48 00 00 	movq   $0x4800,(%rax)
    2bd2:	48 c7 45 08 08 00 00 	movq   $0x8,0x8(%rbp)
    2bd9:	00 
    2bda:	48 c7 40 08 00 09 00 	movq   $0x900,0x8(%rax)
    2be1:	00 
    2be2:	48 c7 45 10 30 00 00 	movq   $0x30,0x10(%rbp)
    2be9:	00 
    2bea:	48 c7 40 10 30 00 00 	movq   $0x30,0x10(%rax)
    2bf1:	00 
    2bf2:	48 c7 45 18 30 00 00 	movq   $0x30,0x18(%rbp)
    2bf9:	00 
    2bfa:	48 c7 40 18 01 00 00 	movq   $0x1,0x18(%rax)
    2c01:	00 
    2c02:	4c 89 ef             	mov    %r13,%rdi
    2c05:	4c 89 fe             	mov    %r15,%rsi
    2c08:	e8 e3 f5 ff ff       	call   21f0 <Relu@plt>
    2c0d:	4c 89 ef             	mov    %r13,%rdi
    2c10:	e8 9b f5 ff ff       	call   21b0 <omTensorDestroy@plt>
    2c15:	4c 89 ff             	mov    %r15,%rdi
    2c18:	e8 93 f5 ff ff       	call   21b0 <omTensorDestroy@plt>
    2c1d:	4c 89 e7             	mov    %r12,%rdi
    2c20:	e8 eb f4 ff ff       	call   2110 <free@plt>
    2c25:	bf 18 00 00 00       	mov    $0x18,%edi
    2c2a:	e8 a1 f4 ff ff       	call   20d0 <malloc@plt>
    2c2f:	48 89 84 24 18 02 00 	mov    %rax,0x218(%rsp)
    2c36:	00 
    2c37:	48 83 c0 0f          	add    $0xf,%rax
    2c3b:	48 83 e0 f0          	and    $0xfffffffffffffff0,%rax
    2c3f:	48 89 84 24 10 02 00 	mov    %rax,0x210(%rsp)
    2c46:	00 
    2c47:	4c 89 30             	mov    %r14,(%rax)
    2c4a:	bf 28 00 00 00       	mov    $0x28,%edi
    2c4f:	e8 7c f4 ff ff       	call   20d0 <malloc@plt>
    2c54:	48 8d 48 0f          	lea    0xf(%rax),%rcx
    2c58:	48 83 e1 f0          	and    $0xfffffffffffffff0,%rcx
    2c5c:	4c 89 31             	mov    %r14,(%rcx)
    2c5f:	48 c7 41 08 08 00 00 	movq   $0x8,0x8(%rcx)
    2c66:	00 
    2c67:	48 c7 41 10 ff ff ff 	movq   $0xffffffffffffffff,0x10(%rcx)
    2c6e:	ff 
    2c6f:	48 89 c7             	mov    %rax,%rdi
    2c72:	e8 99 f4 ff ff       	call   2110 <free@plt>
    2c77:	48 8d 04 dd 00 00 00 	lea    0x0(,%rbx,8),%rax
    2c7e:	00 
    2c7f:	48 89 84 24 e0 00 00 	mov    %rax,0xe0(%rsp)
    2c86:	00 
    2c87:	49 89 df             	mov    %rbx,%r15
    2c8a:	49 c1 e7 04          	shl    $0x4,%r15
    2c8e:	4c 8b ac 24 e8 00 00 	mov    0xe8(%rsp),%r13
    2c95:	00 
    2c96:	4c 89 e8             	mov    %r13,%rax
    2c99:	49 0f af c7          	imul   %r15,%rax
    2c9d:	48 8d 3c 85 10 00 00 	lea    0x10(,%rax,4),%rdi
    2ca4:	00 
    2ca5:	48 89 7c 24 20       	mov    %rdi,0x20(%rsp)
    2caa:	e8 21 f4 ff ff       	call   20d0 <malloc@plt>
    2caf:	49 89 c6             	mov    %rax,%r14
    2cb2:	4c 8d 60 0f          	lea    0xf(%rax),%r12
    2cb6:	49 83 e4 f0          	and    $0xfffffffffffffff0,%r12
    2cba:	bf 03 00 00 00       	mov    $0x3,%edi
    2cbf:	e8 dc f4 ff ff       	call   21a0 <omTensorCreateUntyped@plt>
    2cc4:	48 89 c5             	mov    %rax,%rbp
    2cc7:	48 89 c7             	mov    %rax,%rdi
    2cca:	31 f6                	xor    %esi,%esi
    2ccc:	4c 89 b4 24 08 02 00 	mov    %r14,0x208(%rsp)
    2cd3:	00 
    2cd4:	4c 89 f2             	mov    %r14,%rdx
    2cd7:	4c 89 a4 24 00 02 00 	mov    %r12,0x200(%rsp)
    2cde:	00 
    2cdf:	4c 89 e1             	mov    %r12,%rcx
    2ce2:	e8 09 f4 ff ff       	call   20f0 <omTensorSetDataPtr@plt>
    2ce7:	be 01 00 00 00       	mov    $0x1,%esi
    2cec:	48 89 ef             	mov    %rbp,%rdi
    2cef:	e8 ac f3 ff ff       	call   20a0 <omTensorSetDataType@plt>
    2cf4:	48 89 ef             	mov    %rbp,%rdi
    2cf7:	e8 d4 f4 ff ff       	call   21d0 <omTensorGetShape@plt>
    2cfc:	49 89 c6             	mov    %rax,%r14
    2cff:	48 89 ef             	mov    %rbp,%rdi
    2d02:	e8 69 f3 ff ff       	call   2070 <omTensorGetStrides@plt>
    2d07:	4d 89 2e             	mov    %r13,(%r14)
    2d0a:	4c 89 bc 24 38 01 00 	mov    %r15,0x138(%rsp)
    2d11:	00 
    2d12:	4c 89 38             	mov    %r15,(%rax)
    2d15:	49 c7 46 08 10 00 00 	movq   $0x10,0x8(%r14)
    2d1c:	00 
    2d1d:	48 89 58 08          	mov    %rbx,0x8(%rax)
    2d21:	49 89 5e 10          	mov    %rbx,0x10(%r14)
    2d25:	48 c7 40 10 01 00 00 	movq   $0x1,0x10(%rax)
    2d2c:	00 
    2d2d:	bf 02 00 00 00       	mov    $0x2,%edi
    2d32:	e8 69 f4 ff ff       	call   21a0 <omTensorCreateUntyped@plt>
    2d37:	49 89 c6             	mov    %rax,%r14
    2d3a:	48 8d 0d cf 91 0d 00 	lea    0xd91cf(%rip),%rcx        # dbf10 <constant_11_mobilenet>
    2d41:	48 89 c7             	mov    %rax,%rdi
    2d44:	31 f6                	xor    %esi,%esi
    2d46:	48 89 ca             	mov    %rcx,%rdx
    2d49:	e8 a2 f3 ff ff       	call   20f0 <omTensorSetDataPtr@plt>
    2d4e:	be 01 00 00 00       	mov    $0x1,%esi
    2d53:	4c 89 f7             	mov    %r14,%rdi
    2d56:	e8 45 f3 ff ff       	call   20a0 <omTensorSetDataType@plt>
    2d5b:	4c 89 f7             	mov    %r14,%rdi
    2d5e:	e8 6d f4 ff ff       	call   21d0 <omTensorGetShape@plt>
    2d63:	49 89 c7             	mov    %rax,%r15
    2d66:	4c 89 f7             	mov    %r14,%rdi
    2d69:	e8 02 f3 ff ff       	call   2070 <omTensorGetStrides@plt>
    2d6e:	49 c7 07 10 00 00 00 	movq   $0x10,(%r15)
    2d75:	48 c7 00 08 00 00 00 	movq   $0x8,(%rax)
    2d7c:	49 c7 47 08 08 00 00 	movq   $0x8,0x8(%r15)
    2d83:	00 
    2d84:	48 c7 40 08 01 00 00 	movq   $0x1,0x8(%rax)
    2d8b:	00 
    2d8c:	bf 03 00 00 00       	mov    $0x3,%edi
    2d91:	e8 0a f4 ff ff       	call   21a0 <omTensorCreateUntyped@plt>
    2d96:	49 89 c7             	mov    %rax,%r15
    2d99:	48 89 c7             	mov    %rax,%rdi
    2d9c:	31 f6                	xor    %esi,%esi
    2d9e:	48 8b 54 24 10       	mov    0x10(%rsp),%rdx
    2da3:	48 8b 0c 24          	mov    (%rsp),%rcx
    2da7:	e8 44 f3 ff ff       	call   20f0 <omTensorSetDataPtr@plt>
    2dac:	be 01 00 00 00       	mov    $0x1,%esi
    2db1:	4c 89 ff             	mov    %r15,%rdi
    2db4:	e8 e7 f2 ff ff       	call   20a0 <omTensorSetDataType@plt>
    2db9:	4c 89 ff             	mov    %r15,%rdi
    2dbc:	e8 0f f4 ff ff       	call   21d0 <omTensorGetShape@plt>
    2dc1:	49 89 c4             	mov    %rax,%r12
    2dc4:	4c 89 ff             	mov    %r15,%rdi
    2dc7:	e8 a4 f2 ff ff       	call   2070 <omTensorGetStrides@plt>
    2dcc:	4d 89 2c 24          	mov    %r13,(%r12)
    2dd0:	48 8b 8c 24 e0 00 00 	mov    0xe0(%rsp),%rcx
    2dd7:	00 
    2dd8:	48 89 08             	mov    %rcx,(%rax)
    2ddb:	49 c7 44 24 08 08 00 	movq   $0x8,0x8(%r12)
    2de2:	00 00 
    2de4:	48 89 58 08          	mov    %rbx,0x8(%rax)
    2de8:	49 89 5c 24 10       	mov    %rbx,0x10(%r12)
    2ded:	48 c7 40 10 01 00 00 	movq   $0x1,0x10(%rax)
    2df4:	00 
    2df5:	48 89 ef             	mov    %rbp,%rdi
    2df8:	4c 89 f6             	mov    %r14,%rsi
    2dfb:	4c 89 fa             	mov    %r15,%rdx
    2dfe:	e8 4d f2 ff ff       	call   2050 <MatMul@plt>
    2e03:	48 89 ef             	mov    %rbp,%rdi
    2e06:	e8 a5 f3 ff ff       	call   21b0 <omTensorDestroy@plt>
    2e0b:	4c 89 f7             	mov    %r14,%rdi
    2e0e:	e8 9d f3 ff ff       	call   21b0 <omTensorDestroy@plt>
    2e13:	4c 89 ff             	mov    %r15,%rdi
    2e16:	e8 95 f3 ff ff       	call   21b0 <omTensorDestroy@plt>
    2e1b:	48 8b 7c 24 10       	mov    0x10(%rsp),%rdi
    2e20:	e8 eb f2 ff ff       	call   2110 <free@plt>
    2e25:	48 8b 7c 24 20       	mov    0x20(%rsp),%rdi
    2e2a:	e8 a1 f2 ff ff       	call   20d0 <malloc@plt>
    2e2f:	48 89 84 24 20 02 00 	mov    %rax,0x220(%rsp)
    2e36:	00 
    2e37:	48 83 c0 0f          	add    $0xf,%rax
    2e3b:	48 89 84 24 f8 01 00 	mov    %rax,0x1f8(%rsp)
    2e42:	00 
    2e43:	48 83 e0 f0          	and    $0xfffffffffffffff0,%rax
    2e47:	48 89 84 24 20 01 00 	mov    %rax,0x120(%rsp)
    2e4e:	00 
    2e4f:	4d 85 ed             	test   %r13,%r13
    2e52:	0f 8e f6 12 00 00    	jle    414e <main_graph_mobilenet+0x1e7e>
    2e58:	48 8d 04 9d 00 00 00 	lea    0x0(,%rbx,4),%rax
    2e5f:	00 
    2e60:	48 8d 0c 40          	lea    (%rax,%rax,2),%rcx
    2e64:	48 89 8c 24 30 01 00 	mov    %rcx,0x130(%rsp)
    2e6b:	00 
    2e6c:	48 6b cb 3c          	imul   $0x3c,%rbx,%rcx
    2e70:	48 8b b4 24 20 01 00 	mov    0x120(%rsp),%rsi
    2e77:	00 
    2e78:	48 8d 14 0e          	lea    (%rsi,%rcx,1),%rdx
    2e7c:	48 89 94 24 f0 01 00 	mov    %rdx,0x1f0(%rsp)
    2e83:	00 
    2e84:	48 89 df             	mov    %rbx,%rdi
    2e87:	48 c1 e7 06          	shl    $0x6,%rdi
    2e8b:	4c 8b 84 24 00 02 00 	mov    0x200(%rsp),%r8
    2e92:	00 
    2e93:	48 89 8c 24 78 02 00 	mov    %rcx,0x278(%rsp)
    2e9a:	00 
    2e9b:	4c 01 c1             	add    %r8,%rcx
    2e9e:	48 89 8c 24 e8 01 00 	mov    %rcx,0x1e8(%rsp)
    2ea5:	00 
    2ea6:	48 6b cb 38          	imul   $0x38,%rbx,%rcx
    2eaa:	48 8d 14 0e          	lea    (%rsi,%rcx,1),%rdx
    2eae:	48 89 94 24 e0 01 00 	mov    %rdx,0x1e0(%rsp)
    2eb5:	00 
    2eb6:	48 89 8c 24 70 02 00 	mov    %rcx,0x270(%rsp)
    2ebd:	00 
    2ebe:	4c 01 c1             	add    %r8,%rcx
    2ec1:	48 89 8c 24 d8 01 00 	mov    %rcx,0x1d8(%rsp)
    2ec8:	00 
    2ec9:	48 6b d3 34          	imul   $0x34,%rbx,%rdx
    2ecd:	48 8d 0c 16          	lea    (%rsi,%rdx,1),%rcx
    2ed1:	48 89 8c 24 d0 01 00 	mov    %rcx,0x1d0(%rsp)
    2ed8:	00 
    2ed9:	4c 8d 24 c0          	lea    (%rax,%rax,8),%r12
    2edd:	49 89 df             	mov    %rbx,%r15
    2ee0:	49 c1 e7 05          	shl    $0x5,%r15
    2ee4:	48 8d 0c db          	lea    (%rbx,%rbx,8),%rcx
    2ee8:	4c 8d 34 49          	lea    (%rcx,%rcx,2),%r14
    2eec:	49 01 de             	add    %rbx,%r14
    2eef:	48 8d 04 80          	lea    (%rax,%rax,4),%rax
    2ef3:	48 89 84 24 28 01 00 	mov    %rax,0x128(%rsp)
    2efa:	00 
    2efb:	49 89 db             	mov    %rbx,%r11
    2efe:	49 83 e3 f8          	and    $0xfffffffffffffff8,%r11
    2f02:	f3 0f 10 0d 16 b2 00 	movss  0xb216(%rip),%xmm1        # e120 <_fini+0x1a4>
    2f09:	00 
    2f0a:	f3 0f 10 15 16 b2 00 	movss  0xb216(%rip),%xmm2        # e128 <_fini+0x1ac>
    2f11:	00 
    2f12:	f3 0f 10 25 12 b2 00 	movss  0xb212(%rip),%xmm4        # e12c <_fini+0x1b0>
    2f19:	00 
    2f1a:	f3 44 0f 10 0d 1d b2 	movss  0xb21d(%rip),%xmm9        # e140 <_fini+0x1c4>
    2f21:	00 00 
    2f23:	f3 44 0f 10 15 1c b2 	movss  0xb21c(%rip),%xmm10        # e148 <_fini+0x1cc>
    2f2a:	00 00 
    2f2c:	f3 44 0f 10 1d 17 b2 	movss  0xb217(%rip),%xmm11        # e14c <_fini+0x1d0>
    2f33:	00 00 
    2f35:	f3 44 0f 10 25 12 b2 	movss  0xb212(%rip),%xmm12        # e150 <_fini+0x1d4>
    2f3c:	00 00 
    2f3e:	f3 44 0f 10 2d 0d b2 	movss  0xb20d(%rip),%xmm13        # e154 <_fini+0x1d8>
    2f45:	00 00 
    2f47:	f3 44 0f 10 35 08 b2 	movss  0xb208(%rip),%xmm14        # e158 <_fini+0x1dc>
    2f4e:	00 00 
    2f50:	48 89 94 24 68 02 00 	mov    %rdx,0x268(%rsp)
    2f57:	00 
    2f58:	49 8d 04 10          	lea    (%r8,%rdx,1),%rax
    2f5c:	48 89 84 24 c8 01 00 	mov    %rax,0x1c8(%rsp)
    2f63:	00 
    2f64:	48 8b 94 24 38 01 00 	mov    0x138(%rsp),%rdx
    2f6b:	00 
    2f6c:	4c 8d 14 52          	lea    (%rdx,%rdx,2),%r10
    2f70:	48 8b 8c 24 f8 01 00 	mov    0x1f8(%rsp),%rcx
    2f77:	00 
    2f78:	4e 8d 0c 11          	lea    (%rcx,%r10,1),%r9
    2f7c:	4c 89 8c 24 b0 02 00 	mov    %r9,0x2b0(%rsp)
    2f83:	00 
    2f84:	4b 8d 04 10          	lea    (%r8,%r10,1),%rax
    2f88:	48 89 84 24 c0 01 00 	mov    %rax,0x1c0(%rsp)
    2f8f:	00 
    2f90:	4c 6b cb 2c          	imul   $0x2c,%rbx,%r9
    2f94:	4a 8d 04 0e          	lea    (%rsi,%r9,1),%rax
    2f98:	48 89 84 24 b8 01 00 	mov    %rax,0x1b8(%rsp)
    2f9f:	00 
    2fa0:	4c 89 8c 24 40 02 00 	mov    %r9,0x240(%rsp)
    2fa7:	00 
    2fa8:	4b 8d 04 08          	lea    (%r8,%r9,1),%rax
    2fac:	48 89 84 24 b0 01 00 	mov    %rax,0x1b0(%rsp)
    2fb3:	00 
    2fb4:	4c 8b 8c 24 e0 00 00 	mov    0xe0(%rsp),%r9
    2fbb:	00 
    2fbc:	4b 8d 04 89          	lea    (%r9,%r9,4),%rax
    2fc0:	4c 8d 2c 06          	lea    (%rsi,%rax,1),%r13
    2fc4:	4c 89 ac 24 a8 01 00 	mov    %r13,0x1a8(%rsp)
    2fcb:	00 
    2fcc:	48 89 84 24 38 02 00 	mov    %rax,0x238(%rsp)
    2fd3:	00 
    2fd4:	49 8d 04 00          	lea    (%r8,%rax,1),%rax
    2fd8:	48 89 84 24 a0 01 00 	mov    %rax,0x1a0(%rsp)
    2fdf:	00 
    2fe0:	4a 8d 04 26          	lea    (%rsi,%r12,1),%rax
    2fe4:	48 89 84 24 98 01 00 	mov    %rax,0x198(%rsp)
    2feb:	00 
    2fec:	4c 89 a4 24 60 02 00 	mov    %r12,0x260(%rsp)
    2ff3:	00 
    2ff4:	4f 8d 24 20          	lea    (%r8,%r12,1),%r12
    2ff8:	4a 8d 2c 39          	lea    (%rcx,%r15,1),%rbp
    2ffc:	48 89 ac 24 a0 02 00 	mov    %rbp,0x2a0(%rsp)
    3003:	00 
    3004:	4f 8d 2c 38          	lea    (%r8,%r15,1),%r13
    3008:	4a 8d 04 36          	lea    (%rsi,%r14,1),%rax
    300c:	48 89 84 24 90 01 00 	mov    %rax,0x190(%rsp)
    3013:	00 
    3014:	4c 89 b4 24 50 02 00 	mov    %r14,0x250(%rsp)
    301b:	00 
    301c:	4f 8d 34 30          	lea    (%r8,%r14,1),%r14
    3020:	4f 8d 0c 49          	lea    (%r9,%r9,2),%r9
    3024:	4a 8d 04 0e          	lea    (%rsi,%r9,1),%rax
    3028:	48 89 84 24 88 01 00 	mov    %rax,0x188(%rsp)
    302f:	00 
    3030:	4c 89 8c 24 30 02 00 	mov    %r9,0x230(%rsp)
    3037:	00 
    3038:	4f 8d 0c 08          	lea    (%r8,%r9,1),%r9
    303c:	48 8b ac 24 28 01 00 	mov    0x128(%rsp),%rbp
    3043:	00 
    3044:	48 8d 04 2e          	lea    (%rsi,%rbp,1),%rax
    3048:	48 89 84 24 80 01 00 	mov    %rax,0x180(%rsp)
    304f:	00 
    3050:	49 8d 04 28          	lea    (%r8,%rbp,1),%rax
    3054:	48 89 84 24 78 01 00 	mov    %rax,0x178(%rsp)
    305b:	00 
    305c:	48 8d 0c 11          	lea    (%rcx,%rdx,1),%rcx
    3060:	48 89 8c 24 80 02 00 	mov    %rcx,0x280(%rsp)
    3067:	00 
    3068:	49 8d 04 10          	lea    (%r8,%rdx,1),%rax
    306c:	48 89 84 24 70 01 00 	mov    %rax,0x170(%rsp)
    3073:	00 
    3074:	48 8b 8c 24 30 01 00 	mov    0x130(%rsp),%rcx
    307b:	00 
    307c:	48 8d 2c 0e          	lea    (%rsi,%rcx,1),%rbp
    3080:	48 89 ac 24 68 01 00 	mov    %rbp,0x168(%rsp)
    3087:	00 
    3088:	49 8d 0c 08          	lea    (%r8,%rcx,1),%rcx
    308c:	48 89 8c 24 60 01 00 	mov    %rcx,0x160(%rsp)
    3093:	00 
    3094:	48 8d 0c de          	lea    (%rsi,%rbx,8),%rcx
    3098:	48 89 8c 24 58 01 00 	mov    %rcx,0x158(%rsp)
    309f:	00 
    30a0:	49 8d 0c d8          	lea    (%r8,%rbx,8),%rcx
    30a4:	48 89 8c 24 50 01 00 	mov    %rcx,0x150(%rsp)
    30ab:	00 
    30ac:	48 8d 0c 9e          	lea    (%rsi,%rbx,4),%rcx
    30b0:	48 89 8c 24 48 01 00 	mov    %rcx,0x148(%rsp)
    30b7:	00 
    30b8:	49 8d 0c 98          	lea    (%r8,%rbx,4),%rcx
    30bc:	48 89 8c 24 40 01 00 	mov    %rcx,0x140(%rsp)
    30c3:	00 
    30c4:	48 8d 4e 10          	lea    0x10(%rsi),%rcx
    30c8:	49 8d 68 10          	lea    0x10(%r8),%rbp
    30cc:	48 8d 14 16          	lea    (%rsi,%rdx,1),%rdx
    30d0:	4c 89 bc 24 58 02 00 	mov    %r15,0x258(%rsp)
    30d7:	00 
    30d8:	4e 8d 3c 3e          	lea    (%rsi,%r15,1),%r15
    30dc:	4c 89 7c 24 30       	mov    %r15,0x30(%rsp)
    30e1:	4c 89 94 24 48 02 00 	mov    %r10,0x248(%rsp)
    30e8:	00 
    30e9:	4e 8d 14 16          	lea    (%rsi,%r10,1),%r10
    30ed:	4c 89 54 24 60       	mov    %r10,0x60(%rsp)
    30f2:	4c 8b 94 24 e8 01 00 	mov    0x1e8(%rsp),%r10
    30f9:	00 
    30fa:	4c 89 54 24 10       	mov    %r10,0x10(%rsp)
    30ff:	4c 8b 94 24 f0 01 00 	mov    0x1f0(%rsp),%r10
    3106:	00 
    3107:	4c 89 14 24          	mov    %r10,(%rsp)
    310b:	4c 8b 94 24 d8 01 00 	mov    0x1d8(%rsp),%r10
    3112:	00 
    3113:	4c 89 94 24 18 01 00 	mov    %r10,0x118(%rsp)
    311a:	00 
    311b:	4c 8b 94 24 e0 01 00 	mov    0x1e0(%rsp),%r10
    3122:	00 
    3123:	4c 89 94 24 10 01 00 	mov    %r10,0x110(%rsp)
    312a:	00 
    312b:	48 8b 84 24 c8 01 00 	mov    0x1c8(%rsp),%rax
    3132:	00 
    3133:	48 89 44 24 40       	mov    %rax,0x40(%rsp)
    3138:	4c 8b 94 24 d0 01 00 	mov    0x1d0(%rsp),%r10
    313f:	00 
    3140:	4c 89 54 24 08       	mov    %r10,0x8(%rsp)
    3145:	48 8b 84 24 c0 01 00 	mov    0x1c0(%rsp),%rax
    314c:	00 
    314d:	48 89 84 24 08 01 00 	mov    %rax,0x108(%rsp)
    3154:	00 
    3155:	48 8b 84 24 b0 01 00 	mov    0x1b0(%rsp),%rax
    315c:	00 
    315d:	48 89 44 24 50       	mov    %rax,0x50(%rsp)
    3162:	48 8b 84 24 b8 01 00 	mov    0x1b8(%rsp),%rax
    3169:	00 
    316a:	48 89 44 24 58       	mov    %rax,0x58(%rsp)
    316f:	48 8b 84 24 a0 01 00 	mov    0x1a0(%rsp),%rax
    3176:	00 
    3177:	48 89 84 24 00 01 00 	mov    %rax,0x100(%rsp)
    317e:	00 
    317f:	48 8b 84 24 a8 01 00 	mov    0x1a8(%rsp),%rax
    3186:	00 
    3187:	48 89 44 24 78       	mov    %rax,0x78(%rsp)
    318c:	4c 89 a4 24 a8 02 00 	mov    %r12,0x2a8(%rsp)
    3193:	00 
    3194:	4c 89 64 24 70       	mov    %r12,0x70(%rsp)
    3199:	48 8b 84 24 98 01 00 	mov    0x198(%rsp),%rax
    31a0:	00 
    31a1:	48 89 84 24 98 00 00 	mov    %rax,0x98(%rsp)
    31a8:	00 
    31a9:	4c 89 ac 24 98 02 00 	mov    %r13,0x298(%rsp)
    31b0:	00 
    31b1:	4c 89 b4 24 90 02 00 	mov    %r14,0x290(%rsp)
    31b8:	00 
    31b9:	4c 89 b4 24 90 00 00 	mov    %r14,0x90(%rsp)
    31c0:	00 
    31c1:	49 89 d6             	mov    %rdx,%r14
    31c4:	48 8b 84 24 90 01 00 	mov    0x190(%rsp),%rax
    31cb:	00 
    31cc:	48 89 84 24 88 00 00 	mov    %rax,0x88(%rsp)
    31d3:	00 
    31d4:	4c 89 8c 24 88 02 00 	mov    %r9,0x288(%rsp)
    31db:	00 
    31dc:	4c 89 c8             	mov    %r9,%rax
    31df:	41 b9 00 00 00 00    	mov    $0x0,%r9d
    31e5:	48 8b 94 24 88 01 00 	mov    0x188(%rsp),%rdx
    31ec:	00 
    31ed:	48 89 94 24 d8 00 00 	mov    %rdx,0xd8(%rsp)
    31f4:	00 
    31f5:	48 8b 94 24 78 01 00 	mov    0x178(%rsp),%rdx
    31fc:	00 
    31fd:	48 89 94 24 d0 00 00 	mov    %rdx,0xd0(%rsp)
    3204:	00 
    3205:	48 8b 94 24 80 01 00 	mov    0x180(%rsp),%rdx
    320c:	00 
    320d:	48 89 94 24 c8 00 00 	mov    %rdx,0xc8(%rsp)
    3214:	00 
    3215:	4c 8b 94 24 70 01 00 	mov    0x170(%rsp),%r10
    321c:	00 
    321d:	48 8b 94 24 60 01 00 	mov    0x160(%rsp),%rdx
    3224:	00 
    3225:	48 89 94 24 c0 00 00 	mov    %rdx,0xc0(%rsp)
    322c:	00 
    322d:	48 8b 94 24 68 01 00 	mov    0x168(%rsp),%rdx
    3234:	00 
    3235:	48 89 94 24 b8 00 00 	mov    %rdx,0xb8(%rsp)
    323c:	00 
    323d:	48 8b 94 24 50 01 00 	mov    0x150(%rsp),%rdx
    3244:	00 
    3245:	4c 8b bc 24 58 01 00 	mov    0x158(%rsp),%r15
    324c:	00 
    324d:	4c 89 bc 24 b0 00 00 	mov    %r15,0xb0(%rsp)
    3254:	00 
    3255:	4c 8b bc 24 40 01 00 	mov    0x140(%rsp),%r15
    325c:	00 
    325d:	4c 89 bc 24 a8 00 00 	mov    %r15,0xa8(%rsp)
    3264:	00 
    3265:	4c 8b bc 24 48 01 00 	mov    0x148(%rsp),%r15
    326c:	00 
    326d:	4c 89 bc 24 a0 00 00 	mov    %r15,0xa0(%rsp)
    3274:	00 
    3275:	48 89 b4 24 f8 00 00 	mov    %rsi,0xf8(%rsp)
    327c:	00 
    327d:	4c 89 c6             	mov    %r8,%rsi
    3280:	e9 eb 00 00 00       	jmp    3370 <main_graph_mobilenet+0x10a0>
    3285:	66 2e 0f 1f 84 00 00 	cs nopw 0x0(%rax,%rax,1)
    328c:	00 00 00 
    328f:	90                   	nop
    3290:	49 ff c1             	inc    %r9
    3293:	48 01 f9             	add    %rdi,%rcx
    3296:	48 01 fd             	add    %rdi,%rbp
    3299:	48 01 bc 24 f8 00 00 	add    %rdi,0xf8(%rsp)
    32a0:	00 
    32a1:	48 01 fe             	add    %rdi,%rsi
    32a4:	48 01 bc 24 a0 00 00 	add    %rdi,0xa0(%rsp)
    32ab:	00 
    32ac:	48 01 bc 24 a8 00 00 	add    %rdi,0xa8(%rsp)
    32b3:	00 
    32b4:	48 01 bc 24 b0 00 00 	add    %rdi,0xb0(%rsp)
    32bb:	00 
    32bc:	48 01 fa             	add    %rdi,%rdx
    32bf:	48 01 bc 24 b8 00 00 	add    %rdi,0xb8(%rsp)
    32c6:	00 
    32c7:	48 01 bc 24 c0 00 00 	add    %rdi,0xc0(%rsp)
    32ce:	00 
    32cf:	49 01 fe             	add    %rdi,%r14
    32d2:	49 01 fa             	add    %rdi,%r10
    32d5:	48 01 bc 24 c8 00 00 	add    %rdi,0xc8(%rsp)
    32dc:	00 
    32dd:	48 01 bc 24 d0 00 00 	add    %rdi,0xd0(%rsp)
    32e4:	00 
    32e5:	48 01 bc 24 d8 00 00 	add    %rdi,0xd8(%rsp)
    32ec:	00 
    32ed:	48 01 f8             	add    %rdi,%rax
    32f0:	48 01 bc 24 88 00 00 	add    %rdi,0x88(%rsp)
    32f7:	00 
    32f8:	48 01 bc 24 90 00 00 	add    %rdi,0x90(%rsp)
    32ff:	00 
    3300:	48 01 7c 24 30       	add    %rdi,0x30(%rsp)
    3305:	49 01 fd             	add    %rdi,%r13
    3308:	48 01 bc 24 98 00 00 	add    %rdi,0x98(%rsp)
    330f:	00 
    3310:	48 01 7c 24 70       	add    %rdi,0x70(%rsp)
    3315:	48 01 7c 24 78       	add    %rdi,0x78(%rsp)
    331a:	48 01 bc 24 00 01 00 	add    %rdi,0x100(%rsp)
    3321:	00 
    3322:	48 01 7c 24 58       	add    %rdi,0x58(%rsp)
    3327:	48 01 7c 24 50       	add    %rdi,0x50(%rsp)
    332c:	48 01 7c 24 60       	add    %rdi,0x60(%rsp)
    3331:	48 01 bc 24 08 01 00 	add    %rdi,0x108(%rsp)
    3338:	00 
    3339:	48 01 7c 24 08       	add    %rdi,0x8(%rsp)
    333e:	48 01 7c 24 40       	add    %rdi,0x40(%rsp)
    3343:	48 01 bc 24 10 01 00 	add    %rdi,0x110(%rsp)
    334a:	00 
    334b:	48 01 bc 24 18 01 00 	add    %rdi,0x118(%rsp)
    3352:	00 
    3353:	49 01 fc             	add    %rdi,%r12
    3356:	4c 89 24 24          	mov    %r12,(%rsp)
    335a:	49 01 ff             	add    %rdi,%r15
    335d:	4c 89 7c 24 10       	mov    %r15,0x10(%rsp)
    3362:	4c 3b 8c 24 e8 00 00 	cmp    0xe8(%rsp),%r9
    3369:	00 
    336a:	0f 84 de 0d 00 00    	je     414e <main_graph_mobilenet+0x1e7e>
    3370:	48 85 db             	test   %rbx,%rbx
    3373:	4c 8b 7c 24 10       	mov    0x10(%rsp),%r15
    3378:	4c 8b 24 24          	mov    (%rsp),%r12
    337c:	0f 8e 0e ff ff ff    	jle    3290 <main_graph_mobilenet+0xfc0>
    3382:	4c 89 74 24 20       	mov    %r14,0x20(%rsp)
    3387:	49 89 f8             	mov    %rdi,%r8
    338a:	4c 89 8c 24 f0 00 00 	mov    %r9,0xf0(%rsp)
    3391:	00 
    3392:	4d 0f af c1          	imul   %r9,%r8
    3396:	48 83 fb 08          	cmp    $0x8,%rbx
    339a:	0f 82 88 00 00 00    	jb     3428 <main_graph_mobilenet+0x1158>
    33a0:	4c 8b 8c 24 00 02 00 	mov    0x200(%rsp),%r9
    33a7:	00 
    33a8:	4d 01 c1             	add    %r8,%r9
    33ab:	4c 8b b4 24 f8 01 00 	mov    0x1f8(%rsp),%r14
    33b2:	00 
    33b3:	4d 01 c6             	add    %r8,%r14
    33b6:	4d 29 ce             	sub    %r9,%r14
    33b9:	49 83 fe 20          	cmp    $0x20,%r14
    33bd:	41 b9 00 00 00 00    	mov    $0x0,%r9d
    33c3:	4c 8b bc 24 08 01 00 	mov    0x108(%rsp),%r15
    33ca:	00 
    33cb:	4c 8b a4 24 00 01 00 	mov    0x100(%rsp),%r12
    33d2:	00 
    33d3:	4c 8b b4 24 f8 00 00 	mov    0xf8(%rsp),%r14
    33da:	00 
    33db:	72 73                	jb     3450 <main_graph_mobilenet+0x1180>
    33dd:	45 31 c9             	xor    %r9d,%r9d
    33e0:	0f 28 1d 19 ac 00 00 	movaps 0xac19(%rip),%xmm3        # e000 <_fini+0x84>
    33e7:	66 0f 1f 84 00 00 00 	nopw   0x0(%rax,%rax,1)
    33ee:	00 00 
    33f0:	42 0f 28 44 8d f0    	movaps -0x10(%rbp,%r9,4),%xmm0
    33f6:	0f 58 c3             	addps  %xmm3,%xmm0
    33f9:	42 0f 28 4c 8d 00    	movaps 0x0(%rbp,%r9,4),%xmm1
    33ff:	0f 58 cb             	addps  %xmm3,%xmm1
    3402:	42 0f 29 44 89 f0    	movaps %xmm0,-0x10(%rcx,%r9,4)
    3408:	42 0f 29 0c 89       	movaps %xmm1,(%rcx,%r9,4)
    340d:	49 83 c1 08          	add    $0x8,%r9
    3411:	4d 39 cb             	cmp    %r9,%r11
    3414:	75 da                	jne    33f0 <main_graph_mobilenet+0x1120>
    3416:	4c 39 db             	cmp    %r11,%rbx
    3419:	4d 89 d9             	mov    %r11,%r9
    341c:	f3 0f 10 0d fc ac 00 	movss  0xacfc(%rip),%xmm1        # e120 <_fini+0x1a4>
    3423:	00 
    3424:	75 2a                	jne    3450 <main_graph_mobilenet+0x1180>
    3426:	eb 40                	jmp    3468 <main_graph_mobilenet+0x1198>
    3428:	45 31 c9             	xor    %r9d,%r9d
    342b:	4c 8b bc 24 08 01 00 	mov    0x108(%rsp),%r15
    3432:	00 
    3433:	4c 8b a4 24 00 01 00 	mov    0x100(%rsp),%r12
    343a:	00 
    343b:	4c 8b b4 24 f8 00 00 	mov    0xf8(%rsp),%r14
    3442:	00 
    3443:	66 2e 0f 1f 84 00 00 	cs nopw 0x0(%rax,%rax,1)
    344a:	00 00 00 
    344d:	0f 1f 00             	nopl   (%rax)
    3450:	f3 42 0f 10 04 8e    	movss  (%rsi,%r9,4),%xmm0
    3456:	f3 0f 58 c1          	addss  %xmm1,%xmm0
    345a:	f3 43 0f 11 04 8e    	movss  %xmm0,(%r14,%r9,4)
    3460:	49 ff c1             	inc    %r9
    3463:	4c 39 cb             	cmp    %r9,%rbx
    3466:	75 e8                	jne    3450 <main_graph_mobilenet+0x1180>
    3468:	48 89 b4 24 80 00 00 	mov    %rsi,0x80(%rsp)
    346f:	00 
    3470:	45 0f 28 fe          	movaps %xmm14,%xmm15
    3474:	45 0f 28 f5          	movaps %xmm13,%xmm14
    3478:	45 0f 28 ec          	movaps %xmm12,%xmm13
    347c:	45 0f 28 e3          	movaps %xmm11,%xmm12
    3480:	45 0f 28 da          	movaps %xmm10,%xmm11
    3484:	0f 28 da             	movaps %xmm2,%xmm3
    3487:	48 83 fb 08          	cmp    $0x8,%rbx
    348b:	0f 82 a0 00 00 00    	jb     3531 <main_graph_mobilenet+0x1261>
    3491:	4c 8b 8c 24 48 01 00 	mov    0x148(%rsp),%r9
    3498:	00 
    3499:	4d 01 c1             	add    %r8,%r9
    349c:	4c 8b b4 24 40 01 00 	mov    0x140(%rsp),%r14
    34a3:	00 
    34a4:	4d 01 c6             	add    %r8,%r14
    34a7:	4d 29 f1             	sub    %r14,%r9
    34aa:	49 83 f9 20          	cmp    $0x20,%r9
    34ae:	41 b9 00 00 00 00    	mov    $0x0,%r9d
    34b4:	f3 0f 10 15 68 ac 00 	movss  0xac68(%rip),%xmm2        # e124 <_fini+0x1a8>
    34bb:	00 
    34bc:	4c 8b b4 24 a8 00 00 	mov    0xa8(%rsp),%r14
    34c3:	00 
    34c4:	48 8b b4 24 a0 00 00 	mov    0xa0(%rsp),%rsi
    34cb:	00 
    34cc:	0f 82 7e 00 00 00    	jb     3550 <main_graph_mobilenet+0x1280>
    34d2:	4d 89 d9             	mov    %r11,%r9
    34d5:	49 89 de             	mov    %rbx,%r14
    34d8:	0f 28 15 31 ab 00 00 	movaps 0xab31(%rip),%xmm2        # e010 <_fini+0x94>
    34df:	90                   	nop
    34e0:	42 0f 10 44 b5 f0    	movups -0x10(%rbp,%r14,4),%xmm0
    34e6:	42 0f 10 4c b5 00    	movups 0x0(%rbp,%r14,4),%xmm1
    34ec:	0f 58 c2             	addps  %xmm2,%xmm0
    34ef:	0f 58 ca             	addps  %xmm2,%xmm1
    34f2:	42 0f 11 44 b1 f0    	movups %xmm0,-0x10(%rcx,%r14,4)
    34f8:	42 0f 11 0c b1       	movups %xmm1,(%rcx,%r14,4)
    34fd:	49 83 c6 08          	add    $0x8,%r14
    3501:	49 83 c1 f8          	add    $0xfffffffffffffff8,%r9
    3505:	75 d9                	jne    34e0 <main_graph_mobilenet+0x1210>
    3507:	4c 39 db             	cmp    %r11,%rbx
    350a:	4d 89 d9             	mov    %r11,%r9
    350d:	f3 0f 10 0d 0b ac 00 	movss  0xac0b(%rip),%xmm1        # e120 <_fini+0x1a4>
    3514:	00 
    3515:	f3 0f 10 15 07 ac 00 	movss  0xac07(%rip),%xmm2        # e124 <_fini+0x1a8>
    351c:	00 
    351d:	4c 8b b4 24 a8 00 00 	mov    0xa8(%rsp),%r14
    3524:	00 
    3525:	48 8b b4 24 a0 00 00 	mov    0xa0(%rsp),%rsi
    352c:	00 
    352d:	75 21                	jne    3550 <main_graph_mobilenet+0x1280>
    352f:	eb 37                	jmp    3568 <main_graph_mobilenet+0x1298>
    3531:	45 31 c9             	xor    %r9d,%r9d
    3534:	f3 0f 10 15 e8 ab 00 	movss  0xabe8(%rip),%xmm2        # e124 <_fini+0x1a8>
    353b:	00 
    353c:	4c 8b b4 24 a8 00 00 	mov    0xa8(%rsp),%r14
    3543:	00 
    3544:	48 8b b4 24 a0 00 00 	mov    0xa0(%rsp),%rsi
    354b:	00 
    354c:	0f 1f 40 00          	nopl   0x0(%rax)
    3550:	f3 43 0f 10 04 8e    	movss  (%r14,%r9,4),%xmm0
    3556:	f3 0f 58 c2          	addss  %xmm2,%xmm0
    355a:	f3 42 0f 11 04 8e    	movss  %xmm0,(%rsi,%r9,4)
    3560:	49 ff c1             	inc    %r9
    3563:	4c 39 cb             	cmp    %r9,%rbx
    3566:	75 e8                	jne    3550 <main_graph_mobilenet+0x1280>
    3568:	48 83 fb 08          	cmp    $0x8,%rbx
    356c:	0f 82 cf 00 00 00    	jb     3641 <main_graph_mobilenet+0x1371>
    3572:	4c 8b 8c 24 58 01 00 	mov    0x158(%rsp),%r9
    3579:	00 
    357a:	4d 01 c1             	add    %r8,%r9
    357d:	4c 8b b4 24 50 01 00 	mov    0x150(%rsp),%r14
    3584:	00 
    3585:	4d 01 c6             	add    %r8,%r14
    3588:	4d 29 f1             	sub    %r14,%r9
    358b:	49 83 f9 20          	cmp    $0x20,%r9
    358f:	41 b9 00 00 00 00    	mov    $0x0,%r9d
    3595:	0f 28 d3             	movaps %xmm3,%xmm2
    3598:	45 0f 28 d3          	movaps %xmm11,%xmm10
    359c:	45 0f 28 dc          	movaps %xmm12,%xmm11
    35a0:	45 0f 28 e5          	movaps %xmm13,%xmm12
    35a4:	45 0f 28 ee          	movaps %xmm14,%xmm13
    35a8:	45 0f 28 f7          	movaps %xmm15,%xmm14
    35ac:	f3 44 0f 10 3d a7 ab 	movss  0xaba7(%rip),%xmm15        # e15c <_fini+0x1e0>
    35b3:	00 00 
    35b5:	0f 28 1d 14 ab 00 00 	movaps 0xab14(%rip),%xmm3        # e0d0 <_fini+0x154>
    35bc:	0f 28 2d dd aa 00 00 	movaps 0xaadd(%rip),%xmm5        # e0a0 <_fini+0x124>
    35c3:	0f 28 3d b6 aa 00 00 	movaps 0xaab6(%rip),%xmm7        # e080 <_fini+0x104>
    35ca:	44 0f 28 05 6e aa 00 	movaps 0xaa6e(%rip),%xmm8        # e040 <_fini+0xc4>
    35d1:	00 
    35d2:	4c 8b b4 24 b0 00 00 	mov    0xb0(%rsp),%r14
    35d9:	00 
    35da:	48 8b b4 24 80 00 00 	mov    0x80(%rsp),%rsi
    35e1:	00 
    35e2:	0f 82 b8 00 00 00    	jb     36a0 <main_graph_mobilenet+0x13d0>
    35e8:	4d 89 d9             	mov    %r11,%r9
    35eb:	4c 8b b4 24 e0 00 00 	mov    0xe0(%rsp),%r14
    35f2:	00 
    35f3:	0f 28 35 26 aa 00 00 	movaps 0xaa26(%rip),%xmm6        # e020 <_fini+0xa4>
    35fa:	66 0f 1f 44 00 00    	nopw   0x0(%rax,%rax,1)
    3600:	42 0f 10 44 35 f0    	movups -0x10(%rbp,%r14,1),%xmm0
    3606:	42 0f 10 4c 35 00    	movups 0x0(%rbp,%r14,1),%xmm1
    360c:	0f 58 c6             	addps  %xmm6,%xmm0
    360f:	0f 58 ce             	addps  %xmm6,%xmm1
    3612:	42 0f 11 44 31 f0    	movups %xmm0,-0x10(%rcx,%r14,1)
    3618:	42 0f 11 0c 31       	movups %xmm1,(%rcx,%r14,1)
    361d:	49 83 c6 20          	add    $0x20,%r14
    3621:	49 83 c1 f8          	add    $0xfffffffffffffff8,%r9
    3625:	75 d9                	jne    3600 <main_graph_mobilenet+0x1330>
    3627:	4c 39 db             	cmp    %r11,%rbx
    362a:	4d 89 d9             	mov    %r11,%r9
    362d:	f3 0f 10 0d eb aa 00 	movss  0xaaeb(%rip),%xmm1        # e120 <_fini+0x1a4>
    3634:	00 
    3635:	4c 8b b4 24 b0 00 00 	mov    0xb0(%rsp),%r14
    363c:	00 
    363d:	75 61                	jne    36a0 <main_graph_mobilenet+0x13d0>
    363f:	eb 77                	jmp    36b8 <main_graph_mobilenet+0x13e8>
    3641:	45 31 c9             	xor    %r9d,%r9d
    3644:	0f 28 d3             	movaps %xmm3,%xmm2
    3647:	45 0f 28 d3          	movaps %xmm11,%xmm10
    364b:	45 0f 28 dc          	movaps %xmm12,%xmm11
    364f:	45 0f 28 e5          	movaps %xmm13,%xmm12
    3653:	45 0f 28 ee          	movaps %xmm14,%xmm13
    3657:	45 0f 28 f7          	movaps %xmm15,%xmm14
    365b:	f3 44 0f 10 3d f8 aa 	movss  0xaaf8(%rip),%xmm15        # e15c <_fini+0x1e0>
    3662:	00 00 
    3664:	0f 28 1d 65 aa 00 00 	movaps 0xaa65(%rip),%xmm3        # e0d0 <_fini+0x154>
    366b:	0f 28 2d 2e aa 00 00 	movaps 0xaa2e(%rip),%xmm5        # e0a0 <_fini+0x124>
    3672:	0f 28 3d 07 aa 00 00 	movaps 0xaa07(%rip),%xmm7        # e080 <_fini+0x104>
    3679:	44 0f 28 05 bf a9 00 	movaps 0xa9bf(%rip),%xmm8        # e040 <_fini+0xc4>
    3680:	00 
    3681:	4c 8b b4 24 b0 00 00 	mov    0xb0(%rsp),%r14
    3688:	00 
    3689:	48 8b b4 24 80 00 00 	mov    0x80(%rsp),%rsi
    3690:	00 
    3691:	66 2e 0f 1f 84 00 00 	cs nopw 0x0(%rax,%rax,1)
    3698:	00 00 00 
    369b:	0f 1f 44 00 00       	nopl   0x0(%rax,%rax,1)
    36a0:	f3 42 0f 10 04 8a    	movss  (%rdx,%r9,4),%xmm0
    36a6:	f3 0f 58 c2          	addss  %xmm2,%xmm0
    36aa:	f3 43 0f 11 04 8e    	movss  %xmm0,(%r14,%r9,4)
    36b0:	49 ff c1             	inc    %r9
    36b3:	4c 39 cb             	cmp    %r9,%rbx
    36b6:	75 e8                	jne    36a0 <main_graph_mobilenet+0x13d0>
    36b8:	48 89 94 24 80 00 00 	mov    %rdx,0x80(%rsp)
    36bf:	00 
    36c0:	48 83 fb 08          	cmp    $0x8,%rbx
    36c4:	0f 82 aa 00 00 00    	jb     3774 <main_graph_mobilenet+0x14a4>
    36ca:	4c 8b 8c 24 68 01 00 	mov    0x168(%rsp),%r9
    36d1:	00 
    36d2:	4d 01 c1             	add    %r8,%r9
    36d5:	4c 8b b4 24 60 01 00 	mov    0x160(%rsp),%r14
    36dc:	00 
    36dd:	4d 01 c6             	add    %r8,%r14
    36e0:	4d 29 f1             	sub    %r14,%r9
    36e3:	49 83 f9 20          	cmp    $0x20,%r9
    36e7:	41 b9 00 00 00 00    	mov    $0x0,%r9d
    36ed:	4c 8b b4 24 c0 00 00 	mov    0xc0(%rsp),%r14
    36f4:	00 
    36f5:	48 8b 94 24 b8 00 00 	mov    0xb8(%rsp),%rdx
    36fc:	00 
    36fd:	f3 0f 10 35 2b aa 00 	movss  0xaa2b(%rip),%xmm6        # e130 <_fini+0x1b4>
    3704:	00 
    3705:	0f 82 85 00 00 00    	jb     3790 <main_graph_mobilenet+0x14c0>
    370b:	4d 89 d9             	mov    %r11,%r9
    370e:	4c 8b b4 24 30 01 00 	mov    0x130(%rsp),%r14
    3715:	00 
    3716:	44 0f 28 0d 12 a9 00 	movaps 0xa912(%rip),%xmm9        # e030 <_fini+0xb4>
    371d:	00 
    371e:	66 90                	xchg   %ax,%ax
    3720:	42 0f 10 44 35 f0    	movups -0x10(%rbp,%r14,1),%xmm0
    3726:	42 0f 10 4c 35 00    	movups 0x0(%rbp,%r14,1),%xmm1
    372c:	41 0f 58 c1          	addps  %xmm9,%xmm0
    3730:	41 0f 58 c9          	addps  %xmm9,%xmm1
    3734:	42 0f 11 44 31 f0    	movups %xmm0,-0x10(%rcx,%r14,1)
    373a:	42 0f 11 0c 31       	movups %xmm1,(%rcx,%r14,1)
    373f:	49 83 c6 20          	add    $0x20,%r14
    3743:	49 83 c1 f8          	add    $0xfffffffffffffff8,%r9
    3747:	75 d7                	jne    3720 <main_graph_mobilenet+0x1450>
    3749:	4c 39 db             	cmp    %r11,%rbx
    374c:	4d 89 d9             	mov    %r11,%r9
    374f:	f3 0f 10 0d c9 a9 00 	movss  0xa9c9(%rip),%xmm1        # e120 <_fini+0x1a4>
    3756:	00 
    3757:	4c 8b b4 24 c0 00 00 	mov    0xc0(%rsp),%r14
    375e:	00 
    375f:	48 8b 94 24 b8 00 00 	mov    0xb8(%rsp),%rdx
    3766:	00 
    3767:	f3 44 0f 10 0d d0 a9 	movss  0xa9d0(%rip),%xmm9        # e140 <_fini+0x1c4>
    376e:	00 00 
    3770:	75 1e                	jne    3790 <main_graph_mobilenet+0x14c0>
    3772:	eb 34                	jmp    37a8 <main_graph_mobilenet+0x14d8>
    3774:	45 31 c9             	xor    %r9d,%r9d
    3777:	4c 8b b4 24 c0 00 00 	mov    0xc0(%rsp),%r14
    377e:	00 
    377f:	48 8b 94 24 b8 00 00 	mov    0xb8(%rsp),%rdx
    3786:	00 
    3787:	f3 0f 10 35 a1 a9 00 	movss  0xa9a1(%rip),%xmm6        # e130 <_fini+0x1b4>
    378e:	00 
    378f:	90                   	nop
    3790:	f3 43 0f 10 04 8e    	movss  (%r14,%r9,4),%xmm0
    3796:	f3 0f 58 c4          	addss  %xmm4,%xmm0
    379a:	f3 42 0f 11 04 8a    	movss  %xmm0,(%rdx,%r9,4)
    37a0:	49 ff c1             	inc    %r9
    37a3:	4c 39 cb             	cmp    %r9,%rbx
    37a6:	75 e8                	jne    3790 <main_graph_mobilenet+0x14c0>
    37a8:	48 83 fb 08          	cmp    $0x8,%rbx
    37ac:	0f 82 7e 00 00 00    	jb     3830 <main_graph_mobilenet+0x1560>
    37b2:	4c 8b 8c 24 80 02 00 	mov    0x280(%rsp),%r9
    37b9:	00 
    37ba:	4d 01 c1             	add    %r8,%r9
    37bd:	4c 8b b4 24 70 01 00 	mov    0x170(%rsp),%r14
    37c4:	00 
    37c5:	4d 01 c6             	add    %r8,%r14
    37c8:	4d 29 f1             	sub    %r14,%r9
    37cb:	49 83 f9 20          	cmp    $0x20,%r9
    37cf:	41 b9 00 00 00 00    	mov    $0x0,%r9d
    37d5:	4c 8b 74 24 20       	mov    0x20(%rsp),%r14
    37da:	48 8b 94 24 80 00 00 	mov    0x80(%rsp),%rdx
    37e1:	00 
    37e2:	72 5c                	jb     3840 <main_graph_mobilenet+0x1570>
    37e4:	4d 89 d9             	mov    %r11,%r9
    37e7:	4c 8b b4 24 38 01 00 	mov    0x138(%rsp),%r14
    37ee:	00 
    37ef:	90                   	nop
    37f0:	42 0f 28 44 35 f0    	movaps -0x10(%rbp,%r14,1),%xmm0
    37f6:	41 0f 58 c0          	addps  %xmm8,%xmm0
    37fa:	42 0f 28 4c 35 00    	movaps 0x0(%rbp,%r14,1),%xmm1
    3800:	41 0f 58 c8          	addps  %xmm8,%xmm1
    3804:	42 0f 29 44 31 f0    	movaps %xmm0,-0x10(%rcx,%r14,1)
    380a:	42 0f 29 0c 31       	movaps %xmm1,(%rcx,%r14,1)
    380f:	49 83 c6 20          	add    $0x20,%r14
    3813:	49 83 c1 f8          	add    $0xfffffffffffffff8,%r9
    3817:	75 d7                	jne    37f0 <main_graph_mobilenet+0x1520>
    3819:	4c 39 db             	cmp    %r11,%rbx
    381c:	4d 89 d9             	mov    %r11,%r9
    381f:	f3 0f 10 0d f9 a8 00 	movss  0xa8f9(%rip),%xmm1        # e120 <_fini+0x1a4>
    3826:	00 
    3827:	4c 8b 74 24 20       	mov    0x20(%rsp),%r14
    382c:	75 12                	jne    3840 <main_graph_mobilenet+0x1570>
    382e:	eb 28                	jmp    3858 <main_graph_mobilenet+0x1588>
    3830:	45 31 c9             	xor    %r9d,%r9d
    3833:	4c 8b 74 24 20       	mov    0x20(%rsp),%r14
    3838:	48 8b 94 24 80 00 00 	mov    0x80(%rsp),%rdx
    383f:	00 
    3840:	f3 43 0f 10 04 8a    	movss  (%r10,%r9,4),%xmm0
    3846:	f3 0f 58 c6          	addss  %xmm6,%xmm0
    384a:	f3 43 0f 11 04 8e    	movss  %xmm0,(%r14,%r9,4)
    3850:	49 ff c1             	inc    %r9
    3853:	4c 39 cb             	cmp    %r9,%rbx
    3856:	75 e8                	jne    3840 <main_graph_mobilenet+0x1570>
    3858:	4c 89 94 24 80 00 00 	mov    %r10,0x80(%rsp)
    385f:	00 
    3860:	48 83 fb 08          	cmp    $0x8,%rbx
    3864:	0f 82 ba 00 00 00    	jb     3924 <main_graph_mobilenet+0x1654>
    386a:	4c 8b 8c 24 80 01 00 	mov    0x180(%rsp),%r9
    3871:	00 
    3872:	4d 01 c1             	add    %r8,%r9
    3875:	4c 8b b4 24 78 01 00 	mov    0x178(%rsp),%r14
    387c:	00 
    387d:	4d 01 c6             	add    %r8,%r14
    3880:	4d 29 f1             	sub    %r14,%r9
    3883:	49 83 f9 20          	cmp    $0x20,%r9
    3887:	41 b9 00 00 00 00    	mov    $0x0,%r9d
    388d:	4c 8b b4 24 d0 00 00 	mov    0xd0(%rsp),%r14
    3894:	00 
    3895:	4c 8b 94 24 c8 00 00 	mov    0xc8(%rsp),%r10
    389c:	00 
    389d:	0f 28 35 bc a7 00 00 	movaps 0xa7bc(%rip),%xmm6        # e060 <_fini+0xe4>
    38a4:	f3 44 0f 10 05 87 a8 	movss  0xa887(%rip),%xmm8        # e134 <_fini+0x1b8>
    38ab:	00 00 
    38ad:	0f 82 9d 00 00 00    	jb     3950 <main_graph_mobilenet+0x1680>
    38b3:	4d 89 d9             	mov    %r11,%r9
    38b6:	4c 8b b4 24 28 01 00 	mov    0x128(%rsp),%r14
    38bd:	00 
    38be:	44 0f 28 05 8a a7 00 	movaps 0xa78a(%rip),%xmm8        # e050 <_fini+0xd4>
    38c5:	00 
    38c6:	66 2e 0f 1f 84 00 00 	cs nopw 0x0(%rax,%rax,1)
    38cd:	00 00 00 
    38d0:	42 0f 10 44 35 f0    	movups -0x10(%rbp,%r14,1),%xmm0
    38d6:	42 0f 10 4c 35 00    	movups 0x0(%rbp,%r14,1),%xmm1
    38dc:	41 0f 58 c0          	addps  %xmm8,%xmm0
    38e0:	41 0f 58 c8          	addps  %xmm8,%xmm1
    38e4:	42 0f 11 44 31 f0    	movups %xmm0,-0x10(%rcx,%r14,1)
    38ea:	42 0f 11 0c 31       	movups %xmm1,(%rcx,%r14,1)
    38ef:	49 83 c6 20          	add    $0x20,%r14
    38f3:	49 83 c1 f8          	add    $0xfffffffffffffff8,%r9
    38f7:	75 d7                	jne    38d0 <main_graph_mobilenet+0x1600>
    38f9:	4c 39 db             	cmp    %r11,%rbx
    38fc:	4d 89 d9             	mov    %r11,%r9
    38ff:	f3 0f 10 0d 19 a8 00 	movss  0xa819(%rip),%xmm1        # e120 <_fini+0x1a4>
    3906:	00 
    3907:	4c 8b b4 24 d0 00 00 	mov    0xd0(%rsp),%r14
    390e:	00 
    390f:	4c 8b 94 24 c8 00 00 	mov    0xc8(%rsp),%r10
    3916:	00 
    3917:	f3 44 0f 10 05 14 a8 	movss  0xa814(%rip),%xmm8        # e134 <_fini+0x1b8>
    391e:	00 00 
    3920:	75 2e                	jne    3950 <main_graph_mobilenet+0x1680>
    3922:	eb 45                	jmp    3969 <main_graph_mobilenet+0x1699>
    3924:	45 31 c9             	xor    %r9d,%r9d
    3927:	4c 8b b4 24 d0 00 00 	mov    0xd0(%rsp),%r14
    392e:	00 
    392f:	4c 8b 94 24 c8 00 00 	mov    0xc8(%rsp),%r10
    3936:	00 
    3937:	0f 28 35 22 a7 00 00 	movaps 0xa722(%rip),%xmm6        # e060 <_fini+0xe4>
    393e:	f3 44 0f 10 05 ed a7 	movss  0xa7ed(%rip),%xmm8        # e134 <_fini+0x1b8>
    3945:	00 00 
    3947:	66 0f 1f 84 00 00 00 	nopw   0x0(%rax,%rax,1)
    394e:	00 00 
    3950:	f3 43 0f 10 04 8e    	movss  (%r14,%r9,4),%xmm0
    3956:	f3 41 0f 58 c0       	addss  %xmm8,%xmm0
    395b:	f3 43 0f 11 04 8a    	movss  %xmm0,(%r10,%r9,4)
    3961:	49 ff c1             	inc    %r9
    3964:	4c 39 cb             	cmp    %r9,%rbx
    3967:	75 e7                	jne    3950 <main_graph_mobilenet+0x1680>
    3969:	48 83 fb 08          	cmp    $0x8,%rbx
    396d:	0f 82 8e 00 00 00    	jb     3a01 <main_graph_mobilenet+0x1731>
    3973:	4c 8b 8c 24 88 01 00 	mov    0x188(%rsp),%r9
    397a:	00 
    397b:	4d 01 c1             	add    %r8,%r9
    397e:	4c 8b b4 24 88 02 00 	mov    0x288(%rsp),%r14
    3985:	00 
    3986:	4d 01 c6             	add    %r8,%r14
    3989:	4d 29 f1             	sub    %r14,%r9
    398c:	49 83 f9 20          	cmp    $0x20,%r9
    3990:	41 b9 00 00 00 00    	mov    $0x0,%r9d
    3996:	4c 8b b4 24 d8 00 00 	mov    0xd8(%rsp),%r14
    399d:	00 
    399e:	4c 8b 94 24 80 00 00 	mov    0x80(%rsp),%r10
    39a5:	00 
    39a6:	f3 44 0f 10 05 89 a7 	movss  0xa789(%rip),%xmm8        # e138 <_fini+0x1bc>
    39ad:	00 00 
    39af:	72 6f                	jb     3a20 <main_graph_mobilenet+0x1750>
    39b1:	4d 89 d9             	mov    %r11,%r9
    39b4:	4c 8b b4 24 30 02 00 	mov    0x230(%rsp),%r14
    39bb:	00 
    39bc:	0f 1f 40 00          	nopl   0x0(%rax)
    39c0:	42 0f 10 44 35 f0    	movups -0x10(%rbp,%r14,1),%xmm0
    39c6:	42 0f 10 4c 35 00    	movups 0x0(%rbp,%r14,1),%xmm1
    39cc:	0f 58 c6             	addps  %xmm6,%xmm0
    39cf:	0f 58 ce             	addps  %xmm6,%xmm1
    39d2:	42 0f 11 44 31 f0    	movups %xmm0,-0x10(%rcx,%r14,1)
    39d8:	42 0f 11 0c 31       	movups %xmm1,(%rcx,%r14,1)
    39dd:	49 83 c6 20          	add    $0x20,%r14
    39e1:	49 83 c1 f8          	add    $0xfffffffffffffff8,%r9
    39e5:	75 d9                	jne    39c0 <main_graph_mobilenet+0x16f0>
    39e7:	4c 39 db             	cmp    %r11,%rbx
    39ea:	4d 89 d9             	mov    %r11,%r9
    39ed:	f3 0f 10 0d 2b a7 00 	movss  0xa72b(%rip),%xmm1        # e120 <_fini+0x1a4>
    39f4:	00 
    39f5:	4c 8b b4 24 d8 00 00 	mov    0xd8(%rsp),%r14
    39fc:	00 
    39fd:	75 21                	jne    3a20 <main_graph_mobilenet+0x1750>
    39ff:	eb 38                	jmp    3a39 <main_graph_mobilenet+0x1769>
    3a01:	45 31 c9             	xor    %r9d,%r9d
    3a04:	4c 8b b4 24 d8 00 00 	mov    0xd8(%rsp),%r14
    3a0b:	00 
    3a0c:	4c 8b 94 24 80 00 00 	mov    0x80(%rsp),%r10
    3a13:	00 
    3a14:	f3 44 0f 10 05 1b a7 	movss  0xa71b(%rip),%xmm8        # e138 <_fini+0x1bc>
    3a1b:	00 00 
    3a1d:	0f 1f 00             	nopl   (%rax)
    3a20:	f3 42 0f 10 04 88    	movss  (%rax,%r9,4),%xmm0
    3a26:	f3 41 0f 58 c0       	addss  %xmm8,%xmm0
    3a2b:	f3 43 0f 11 04 8e    	movss  %xmm0,(%r14,%r9,4)
    3a31:	49 ff c1             	inc    %r9
    3a34:	4c 39 cb             	cmp    %r9,%rbx
    3a37:	75 e7                	jne    3a20 <main_graph_mobilenet+0x1750>
    3a39:	48 89 84 24 80 00 00 	mov    %rax,0x80(%rsp)
    3a40:	00 
    3a41:	48 83 fb 08          	cmp    $0x8,%rbx
    3a45:	0f 82 9e 00 00 00    	jb     3ae9 <main_graph_mobilenet+0x1819>
    3a4b:	4c 8b 8c 24 90 01 00 	mov    0x190(%rsp),%r9
    3a52:	00 
    3a53:	4d 01 c1             	add    %r8,%r9
    3a56:	4c 8b b4 24 90 02 00 	mov    0x290(%rsp),%r14
    3a5d:	00 
    3a5e:	4d 01 c6             	add    %r8,%r14
    3a61:	4d 29 f1             	sub    %r14,%r9
    3a64:	49 83 f9 20          	cmp    $0x20,%r9
    3a68:	41 b9 00 00 00 00    	mov    $0x0,%r9d
    3a6e:	4c 8b b4 24 90 00 00 	mov    0x90(%rsp),%r14
    3a75:	00 
    3a76:	48 8b 84 24 88 00 00 	mov    0x88(%rsp),%rax
    3a7d:	00 
    3a7e:	f3 44 0f 10 05 b5 a6 	movss  0xa6b5(%rip),%xmm8        # e13c <_fini+0x1c0>
    3a85:	00 00 
    3a87:	0f 82 83 00 00 00    	jb     3b10 <main_graph_mobilenet+0x1840>
    3a8d:	4d 89 d9             	mov    %r11,%r9
    3a90:	4c 8b b4 24 50 02 00 	mov    0x250(%rsp),%r14
    3a97:	00 
    3a98:	0f 28 35 d1 a5 00 00 	movaps 0xa5d1(%rip),%xmm6        # e070 <_fini+0xf4>
    3a9f:	90                   	nop
    3aa0:	42 0f 10 44 35 f0    	movups -0x10(%rbp,%r14,1),%xmm0
    3aa6:	42 0f 10 4c 35 00    	movups 0x0(%rbp,%r14,1),%xmm1
    3aac:	0f 58 c6             	addps  %xmm6,%xmm0
    3aaf:	0f 58 ce             	addps  %xmm6,%xmm1
    3ab2:	42 0f 11 44 31 f0    	movups %xmm0,-0x10(%rcx,%r14,1)
    3ab8:	42 0f 11 0c 31       	movups %xmm1,(%rcx,%r14,1)
    3abd:	49 83 c6 20          	add    $0x20,%r14
    3ac1:	49 83 c1 f8          	add    $0xfffffffffffffff8,%r9
    3ac5:	75 d9                	jne    3aa0 <main_graph_mobilenet+0x17d0>
    3ac7:	4c 39 db             	cmp    %r11,%rbx
    3aca:	4d 89 d9             	mov    %r11,%r9
    3acd:	f3 0f 10 0d 4b a6 00 	movss  0xa64b(%rip),%xmm1        # e120 <_fini+0x1a4>
    3ad4:	00 
    3ad5:	4c 8b b4 24 90 00 00 	mov    0x90(%rsp),%r14
    3adc:	00 
    3add:	48 8b 84 24 88 00 00 	mov    0x88(%rsp),%rax
    3ae4:	00 
    3ae5:	75 29                	jne    3b10 <main_graph_mobilenet+0x1840>
    3ae7:	eb 40                	jmp    3b29 <main_graph_mobilenet+0x1859>
    3ae9:	45 31 c9             	xor    %r9d,%r9d
    3aec:	4c 8b b4 24 90 00 00 	mov    0x90(%rsp),%r14
    3af3:	00 
    3af4:	48 8b 84 24 88 00 00 	mov    0x88(%rsp),%rax
    3afb:	00 
    3afc:	f3 44 0f 10 05 37 a6 	movss  0xa637(%rip),%xmm8        # e13c <_fini+0x1c0>
    3b03:	00 00 
    3b05:	66 2e 0f 1f 84 00 00 	cs nopw 0x0(%rax,%rax,1)
    3b0c:	00 00 00 
    3b0f:	90                   	nop
    3b10:	f3 43 0f 10 04 8e    	movss  (%r14,%r9,4),%xmm0
    3b16:	f3 41 0f 58 c0       	addss  %xmm8,%xmm0
    3b1b:	f3 42 0f 11 04 88    	movss  %xmm0,(%rax,%r9,4)
    3b21:	49 ff c1             	inc    %r9
    3b24:	4c 39 cb             	cmp    %r9,%rbx
    3b27:	75 e7                	jne    3b10 <main_graph_mobilenet+0x1840>
    3b29:	48 83 fb 08          	cmp    $0x8,%rbx
    3b2d:	f3 0f 10 35 0f a6 00 	movss  0xa60f(%rip),%xmm6        # e144 <_fini+0x1c8>
    3b34:	00 
    3b35:	0f 82 83 00 00 00    	jb     3bbe <main_graph_mobilenet+0x18ee>
    3b3b:	4c 8b 8c 24 a0 02 00 	mov    0x2a0(%rsp),%r9
    3b42:	00 
    3b43:	4d 01 c1             	add    %r8,%r9
    3b46:	4c 8b b4 24 98 02 00 	mov    0x298(%rsp),%r14
    3b4d:	00 
    3b4e:	4d 01 c6             	add    %r8,%r14
    3b51:	4d 29 f1             	sub    %r14,%r9
    3b54:	49 83 f9 20          	cmp    $0x20,%r9
    3b58:	41 b9 00 00 00 00    	mov    $0x0,%r9d
    3b5e:	4c 8b 74 24 30       	mov    0x30(%rsp),%r14
    3b63:	48 8b 84 24 80 00 00 	mov    0x80(%rsp),%rax
    3b6a:	00 
    3b6b:	72 63                	jb     3bd0 <main_graph_mobilenet+0x1900>
    3b6d:	4d 89 d9             	mov    %r11,%r9
    3b70:	4c 8b b4 24 58 02 00 	mov    0x258(%rsp),%r14
    3b77:	00 
    3b78:	0f 1f 84 00 00 00 00 	nopl   0x0(%rax,%rax,1)
    3b7f:	00 
    3b80:	42 0f 28 44 35 f0    	movaps -0x10(%rbp,%r14,1),%xmm0
    3b86:	0f 58 c7             	addps  %xmm7,%xmm0
    3b89:	42 0f 28 4c 35 00    	movaps 0x0(%rbp,%r14,1),%xmm1
    3b8f:	0f 58 cf             	addps  %xmm7,%xmm1
    3b92:	42 0f 29 44 31 f0    	movaps %xmm0,-0x10(%rcx,%r14,1)
    3b98:	42 0f 29 0c 31       	movaps %xmm1,(%rcx,%r14,1)
    3b9d:	49 83 c6 20          	add    $0x20,%r14
    3ba1:	49 83 c1 f8          	add    $0xfffffffffffffff8,%r9
    3ba5:	75 d9                	jne    3b80 <main_graph_mobilenet+0x18b0>
    3ba7:	4c 39 db             	cmp    %r11,%rbx
    3baa:	4d 89 d9             	mov    %r11,%r9
    3bad:	f3 0f 10 0d 6b a5 00 	movss  0xa56b(%rip),%xmm1        # e120 <_fini+0x1a4>
    3bb4:	00 
    3bb5:	4c 8b 74 24 30       	mov    0x30(%rsp),%r14
    3bba:	75 14                	jne    3bd0 <main_graph_mobilenet+0x1900>
    3bbc:	eb 2c                	jmp    3bea <main_graph_mobilenet+0x191a>
    3bbe:	45 31 c9             	xor    %r9d,%r9d
    3bc1:	4c 8b 74 24 30       	mov    0x30(%rsp),%r14
    3bc6:	48 8b 84 24 80 00 00 	mov    0x80(%rsp),%rax
    3bcd:	00 
    3bce:	66 90                	xchg   %ax,%ax
    3bd0:	f3 43 0f 10 44 8d 00 	movss  0x0(%r13,%r9,4),%xmm0
    3bd7:	f3 41 0f 58 c1       	addss  %xmm9,%xmm0
    3bdc:	f3 43 0f 11 04 8e    	movss  %xmm0,(%r14,%r9,4)
    3be2:	49 ff c1             	inc    %r9
    3be5:	4c 39 cb             	cmp    %r9,%rbx
    3be8:	75 e6                	jne    3bd0 <main_graph_mobilenet+0x1900>
    3bea:	4c 89 ac 24 80 00 00 	mov    %r13,0x80(%rsp)
    3bf1:	00 
    3bf2:	48 83 fb 08          	cmp    $0x8,%rbx
    3bf6:	0f 82 8a 00 00 00    	jb     3c86 <main_graph_mobilenet+0x19b6>
    3bfc:	4c 8b 8c 24 98 01 00 	mov    0x198(%rsp),%r9
    3c03:	00 
    3c04:	4d 01 c1             	add    %r8,%r9
    3c07:	4c 8b b4 24 a8 02 00 	mov    0x2a8(%rsp),%r14
    3c0e:	00 
    3c0f:	4d 01 c6             	add    %r8,%r14
    3c12:	4d 29 f1             	sub    %r14,%r9
    3c15:	49 83 f9 20          	cmp    $0x20,%r9
    3c19:	41 b9 00 00 00 00    	mov    $0x0,%r9d
    3c1f:	4c 8b 74 24 70       	mov    0x70(%rsp),%r14
    3c24:	4c 8b ac 24 98 00 00 	mov    0x98(%rsp),%r13
    3c2b:	00 
    3c2c:	72 72                	jb     3ca0 <main_graph_mobilenet+0x19d0>
    3c2e:	4d 89 d9             	mov    %r11,%r9
    3c31:	4c 8b b4 24 60 02 00 	mov    0x260(%rsp),%r14
    3c38:	00 
    3c39:	0f 28 3d 50 a4 00 00 	movaps 0xa450(%rip),%xmm7        # e090 <_fini+0x114>
    3c40:	42 0f 10 44 35 f0    	movups -0x10(%rbp,%r14,1),%xmm0
    3c46:	42 0f 10 4c 35 00    	movups 0x0(%rbp,%r14,1),%xmm1
    3c4c:	0f 58 c7             	addps  %xmm7,%xmm0
    3c4f:	0f 58 cf             	addps  %xmm7,%xmm1
    3c52:	42 0f 11 44 31 f0    	movups %xmm0,-0x10(%rcx,%r14,1)
    3c58:	42 0f 11 0c 31       	movups %xmm1,(%rcx,%r14,1)
    3c5d:	49 83 c6 20          	add    $0x20,%r14
    3c61:	49 83 c1 f8          	add    $0xfffffffffffffff8,%r9
    3c65:	75 d9                	jne    3c40 <main_graph_mobilenet+0x1970>
    3c67:	4c 39 db             	cmp    %r11,%rbx
    3c6a:	4d 89 d9             	mov    %r11,%r9
    3c6d:	f3 0f 10 0d ab a4 00 	movss  0xa4ab(%rip),%xmm1        # e120 <_fini+0x1a4>
    3c74:	00 
    3c75:	4c 8b 74 24 70       	mov    0x70(%rsp),%r14
    3c7a:	4c 8b ac 24 98 00 00 	mov    0x98(%rsp),%r13
    3c81:	00 
    3c82:	75 1c                	jne    3ca0 <main_graph_mobilenet+0x19d0>
    3c84:	eb 33                	jmp    3cb9 <main_graph_mobilenet+0x19e9>
    3c86:	45 31 c9             	xor    %r9d,%r9d
    3c89:	4c 8b 74 24 70       	mov    0x70(%rsp),%r14
    3c8e:	4c 8b ac 24 98 00 00 	mov    0x98(%rsp),%r13
    3c95:	00 
    3c96:	66 2e 0f 1f 84 00 00 	cs nopw 0x0(%rax,%rax,1)
    3c9d:	00 00 00 
    3ca0:	f3 43 0f 10 04 8e    	movss  (%r14,%r9,4),%xmm0
    3ca6:	f3 0f 58 c6          	addss  %xmm6,%xmm0
    3caa:	f3 43 0f 11 44 8d 00 	movss  %xmm0,0x0(%r13,%r9,4)
    3cb1:	49 ff c1             	inc    %r9
    3cb4:	4c 39 cb             	cmp    %r9,%rbx
    3cb7:	75 e7                	jne    3ca0 <main_graph_mobilenet+0x19d0>
    3cb9:	48 83 fb 08          	cmp    $0x8,%rbx
    3cbd:	72 7f                	jb     3d3e <main_graph_mobilenet+0x1a6e>
    3cbf:	4c 8b 8c 24 a8 01 00 	mov    0x1a8(%rsp),%r9
    3cc6:	00 
    3cc7:	4d 01 c1             	add    %r8,%r9
    3cca:	4c 8b b4 24 a0 01 00 	mov    0x1a0(%rsp),%r14
    3cd1:	00 
    3cd2:	4d 01 c6             	add    %r8,%r14
    3cd5:	4d 29 f1             	sub    %r14,%r9
    3cd8:	49 83 f9 20          	cmp    $0x20,%r9
    3cdc:	41 b9 00 00 00 00    	mov    $0x0,%r9d
    3ce2:	4c 8b 74 24 78       	mov    0x78(%rsp),%r14
    3ce7:	4c 8b ac 24 80 00 00 	mov    0x80(%rsp),%r13
    3cee:	00 
    3cef:	72 5f                	jb     3d50 <main_graph_mobilenet+0x1a80>
    3cf1:	4d 89 d9             	mov    %r11,%r9
    3cf4:	4c 8b b4 24 38 02 00 	mov    0x238(%rsp),%r14
    3cfb:	00 
    3cfc:	0f 1f 40 00          	nopl   0x0(%rax)
    3d00:	42 0f 10 44 35 f0    	movups -0x10(%rbp,%r14,1),%xmm0
    3d06:	42 0f 10 4c 35 00    	movups 0x0(%rbp,%r14,1),%xmm1
    3d0c:	0f 58 c5             	addps  %xmm5,%xmm0
    3d0f:	0f 58 cd             	addps  %xmm5,%xmm1
    3d12:	42 0f 11 44 31 f0    	movups %xmm0,-0x10(%rcx,%r14,1)
    3d18:	42 0f 11 0c 31       	movups %xmm1,(%rcx,%r14,1)
    3d1d:	49 83 c6 20          	add    $0x20,%r14
    3d21:	49 83 c1 f8          	add    $0xfffffffffffffff8,%r9
    3d25:	75 d9                	jne    3d00 <main_graph_mobilenet+0x1a30>
    3d27:	4c 39 db             	cmp    %r11,%rbx
    3d2a:	4d 89 d9             	mov    %r11,%r9
    3d2d:	f3 0f 10 0d eb a3 00 	movss  0xa3eb(%rip),%xmm1        # e120 <_fini+0x1a4>
    3d34:	00 
    3d35:	4c 8b 74 24 78       	mov    0x78(%rsp),%r14
    3d3a:	75 14                	jne    3d50 <main_graph_mobilenet+0x1a80>
    3d3c:	eb 2b                	jmp    3d69 <main_graph_mobilenet+0x1a99>
    3d3e:	45 31 c9             	xor    %r9d,%r9d
    3d41:	4c 8b 74 24 78       	mov    0x78(%rsp),%r14
    3d46:	4c 8b ac 24 80 00 00 	mov    0x80(%rsp),%r13
    3d4d:	00 
    3d4e:	66 90                	xchg   %ax,%ax
    3d50:	f3 43 0f 10 04 8c    	movss  (%r12,%r9,4),%xmm0
    3d56:	f3 41 0f 58 c2       	addss  %xmm10,%xmm0
    3d5b:	f3 43 0f 11 04 8e    	movss  %xmm0,(%r14,%r9,4)
    3d61:	49 ff c1             	inc    %r9
    3d64:	4c 39 cb             	cmp    %r9,%rbx
    3d67:	75 e7                	jne    3d50 <main_graph_mobilenet+0x1a80>
    3d69:	48 83 fb 08          	cmp    $0x8,%rbx
    3d6d:	0f 82 90 00 00 00    	jb     3e03 <main_graph_mobilenet+0x1b33>
    3d73:	4c 8b 8c 24 b8 01 00 	mov    0x1b8(%rsp),%r9
    3d7a:	00 
    3d7b:	4d 01 c1             	add    %r8,%r9
    3d7e:	4c 8b b4 24 b0 01 00 	mov    0x1b0(%rsp),%r14
    3d85:	00 
    3d86:	4d 01 c6             	add    %r8,%r14
    3d89:	4d 29 f1             	sub    %r14,%r9
    3d8c:	49 83 f9 20          	cmp    $0x20,%r9
    3d90:	41 b9 00 00 00 00    	mov    $0x0,%r9d
    3d96:	4c 8b 74 24 50       	mov    0x50(%rsp),%r14
    3d9b:	4c 8b 64 24 58       	mov    0x58(%rsp),%r12
    3da0:	72 6e                	jb     3e10 <main_graph_mobilenet+0x1b40>
    3da2:	4d 89 d9             	mov    %r11,%r9
    3da5:	4c 8b b4 24 40 02 00 	mov    0x240(%rsp),%r14
    3dac:	00 
    3dad:	0f 28 2d fc a2 00 00 	movaps 0xa2fc(%rip),%xmm5        # e0b0 <_fini+0x134>
    3db4:	66 2e 0f 1f 84 00 00 	cs nopw 0x0(%rax,%rax,1)
    3dbb:	00 00 00 
    3dbe:	66 90                	xchg   %ax,%ax
    3dc0:	42 0f 10 44 35 f0    	movups -0x10(%rbp,%r14,1),%xmm0
    3dc6:	42 0f 10 4c 35 00    	movups 0x0(%rbp,%r14,1),%xmm1
    3dcc:	0f 58 c5             	addps  %xmm5,%xmm0
    3dcf:	0f 58 cd             	addps  %xmm5,%xmm1
    3dd2:	42 0f 11 44 31 f0    	movups %xmm0,-0x10(%rcx,%r14,1)
    3dd8:	42 0f 11 0c 31       	movups %xmm1,(%rcx,%r14,1)
    3ddd:	49 83 c6 20          	add    $0x20,%r14
    3de1:	49 83 c1 f8          	add    $0xfffffffffffffff8,%r9
    3de5:	75 d9                	jne    3dc0 <main_graph_mobilenet+0x1af0>
    3de7:	4c 39 db             	cmp    %r11,%rbx
    3dea:	4d 89 d9             	mov    %r11,%r9
    3ded:	f3 0f 10 0d 2b a3 00 	movss  0xa32b(%rip),%xmm1        # e120 <_fini+0x1a4>
    3df4:	00 
    3df5:	4c 8b 74 24 50       	mov    0x50(%rsp),%r14
    3dfa:	4c 8b 64 24 58       	mov    0x58(%rsp),%r12
    3dff:	75 0f                	jne    3e10 <main_graph_mobilenet+0x1b40>
    3e01:	eb 26                	jmp    3e29 <main_graph_mobilenet+0x1b59>
    3e03:	45 31 c9             	xor    %r9d,%r9d
    3e06:	4c 8b 74 24 50       	mov    0x50(%rsp),%r14
    3e0b:	4c 8b 64 24 58       	mov    0x58(%rsp),%r12
    3e10:	f3 43 0f 10 04 8e    	movss  (%r14,%r9,4),%xmm0
    3e16:	f3 41 0f 58 c3       	addss  %xmm11,%xmm0
    3e1b:	f3 43 0f 11 04 8c    	movss  %xmm0,(%r12,%r9,4)
    3e21:	49 ff c1             	inc    %r9
    3e24:	4c 39 cb             	cmp    %r9,%rbx
    3e27:	75 e7                	jne    3e10 <main_graph_mobilenet+0x1b40>
    3e29:	48 83 fb 08          	cmp    $0x8,%rbx
    3e2d:	0f 82 93 00 00 00    	jb     3ec6 <main_graph_mobilenet+0x1bf6>
    3e33:	4c 8b 8c 24 b0 02 00 	mov    0x2b0(%rsp),%r9
    3e3a:	00 
    3e3b:	4d 01 c1             	add    %r8,%r9
    3e3e:	4c 8b b4 24 c0 01 00 	mov    0x1c0(%rsp),%r14
    3e45:	00 
    3e46:	4d 01 c6             	add    %r8,%r14
    3e49:	4d 29 f1             	sub    %r14,%r9
    3e4c:	49 83 f9 20          	cmp    $0x20,%r9
    3e50:	41 b9 00 00 00 00    	mov    $0x0,%r9d
    3e56:	4c 8b 74 24 60       	mov    0x60(%rsp),%r14
    3e5b:	4c 8b a4 24 10 01 00 	mov    0x110(%rsp),%r12
    3e62:	00 
    3e63:	72 7b                	jb     3ee0 <main_graph_mobilenet+0x1c10>
    3e65:	4d 89 d9             	mov    %r11,%r9
    3e68:	4c 8b b4 24 48 02 00 	mov    0x248(%rsp),%r14
    3e6f:	00 
    3e70:	0f 28 25 49 a2 00 00 	movaps 0xa249(%rip),%xmm4        # e0c0 <_fini+0x144>
    3e77:	66 0f 1f 84 00 00 00 	nopw   0x0(%rax,%rax,1)
    3e7e:	00 00 
    3e80:	42 0f 28 44 35 f0    	movaps -0x10(%rbp,%r14,1),%xmm0
    3e86:	0f 58 c4             	addps  %xmm4,%xmm0
    3e89:	42 0f 28 4c 35 00    	movaps 0x0(%rbp,%r14,1),%xmm1
    3e8f:	0f 58 cc             	addps  %xmm4,%xmm1
    3e92:	42 0f 29 44 31 f0    	movaps %xmm0,-0x10(%rcx,%r14,1)
    3e98:	42 0f 29 0c 31       	movaps %xmm1,(%rcx,%r14,1)
    3e9d:	49 83 c6 20          	add    $0x20,%r14
    3ea1:	49 83 c1 f8          	add    $0xfffffffffffffff8,%r9
    3ea5:	75 d9                	jne    3e80 <main_graph_mobilenet+0x1bb0>
    3ea7:	4c 39 db             	cmp    %r11,%rbx
    3eaa:	4d 89 d9             	mov    %r11,%r9
    3ead:	f3 0f 10 0d 6b a2 00 	movss  0xa26b(%rip),%xmm1        # e120 <_fini+0x1a4>
    3eb4:	00 
    3eb5:	4c 8b 74 24 60       	mov    0x60(%rsp),%r14
    3eba:	f3 0f 10 25 6a a2 00 	movss  0xa26a(%rip),%xmm4        # e12c <_fini+0x1b0>
    3ec1:	00 
    3ec2:	75 1c                	jne    3ee0 <main_graph_mobilenet+0x1c10>
    3ec4:	eb 33                	jmp    3ef9 <main_graph_mobilenet+0x1c29>
    3ec6:	45 31 c9             	xor    %r9d,%r9d
    3ec9:	4c 8b 74 24 60       	mov    0x60(%rsp),%r14
    3ece:	4c 8b a4 24 10 01 00 	mov    0x110(%rsp),%r12
    3ed5:	00 
    3ed6:	66 2e 0f 1f 84 00 00 	cs nopw 0x0(%rax,%rax,1)
    3edd:	00 00 00 
    3ee0:	f3 43 0f 10 04 8f    	movss  (%r15,%r9,4),%xmm0
    3ee6:	f3 41 0f 58 c4       	addss  %xmm12,%xmm0
    3eeb:	f3 43 0f 11 04 8e    	movss  %xmm0,(%r14,%r9,4)
    3ef1:	49 ff c1             	inc    %r9
    3ef4:	4c 39 cb             	cmp    %r9,%rbx
    3ef7:	75 e7                	jne    3ee0 <main_graph_mobilenet+0x1c10>
    3ef9:	48 83 fb 08          	cmp    $0x8,%rbx
    3efd:	0f 82 80 00 00 00    	jb     3f83 <main_graph_mobilenet+0x1cb3>
    3f03:	4c 8b 8c 24 d0 01 00 	mov    0x1d0(%rsp),%r9
    3f0a:	00 
    3f0b:	4d 01 c1             	add    %r8,%r9
    3f0e:	4c 8b b4 24 c8 01 00 	mov    0x1c8(%rsp),%r14
    3f15:	00 
    3f16:	4d 01 c6             	add    %r8,%r14
    3f19:	4d 29 f1             	sub    %r14,%r9
    3f1c:	49 83 f9 20          	cmp    $0x20,%r9
    3f20:	41 b9 00 00 00 00    	mov    $0x0,%r9d
    3f26:	4c 8b 74 24 40       	mov    0x40(%rsp),%r14
    3f2b:	4c 8b 7c 24 08       	mov    0x8(%rsp),%r15
    3f30:	72 5e                	jb     3f90 <main_graph_mobilenet+0x1cc0>
    3f32:	4d 89 d9             	mov    %r11,%r9
    3f35:	4c 8b b4 24 68 02 00 	mov    0x268(%rsp),%r14
    3f3c:	00 
    3f3d:	0f 1f 00             	nopl   (%rax)
    3f40:	42 0f 10 44 35 f0    	movups -0x10(%rbp,%r14,1),%xmm0
    3f46:	42 0f 10 4c 35 00    	movups 0x0(%rbp,%r14,1),%xmm1
    3f4c:	0f 58 c3             	addps  %xmm3,%xmm0
    3f4f:	0f 58 cb             	addps  %xmm3,%xmm1
    3f52:	42 0f 11 44 31 f0    	movups %xmm0,-0x10(%rcx,%r14,1)
    3f58:	42 0f 11 0c 31       	movups %xmm1,(%rcx,%r14,1)
    3f5d:	49 83 c6 20          	add    $0x20,%r14
    3f61:	49 83 c1 f8          	add    $0xfffffffffffffff8,%r9
    3f65:	75 d9                	jne    3f40 <main_graph_mobilenet+0x1c70>
    3f67:	4c 39 db             	cmp    %r11,%rbx
    3f6a:	4d 89 d9             	mov    %r11,%r9
    3f6d:	f3 0f 10 0d ab a1 00 	movss  0xa1ab(%rip),%xmm1        # e120 <_fini+0x1a4>
    3f74:	00 
    3f75:	4c 8b 74 24 40       	mov    0x40(%rsp),%r14
    3f7a:	4c 8b 7c 24 08       	mov    0x8(%rsp),%r15
    3f7f:	75 0f                	jne    3f90 <main_graph_mobilenet+0x1cc0>
    3f81:	eb 26                	jmp    3fa9 <main_graph_mobilenet+0x1cd9>
    3f83:	45 31 c9             	xor    %r9d,%r9d
    3f86:	4c 8b 74 24 40       	mov    0x40(%rsp),%r14
    3f8b:	4c 8b 7c 24 08       	mov    0x8(%rsp),%r15
    3f90:	f3 43 0f 10 04 8e    	movss  (%r14,%r9,4),%xmm0
    3f96:	f3 41 0f 58 c5       	addss  %xmm13,%xmm0
    3f9b:	f3 43 0f 11 04 8f    	movss  %xmm0,(%r15,%r9,4)
    3fa1:	49 ff c1             	inc    %r9
    3fa4:	4c 39 cb             	cmp    %r9,%rbx
    3fa7:	75 e7                	jne    3f90 <main_graph_mobilenet+0x1cc0>
    3fa9:	48 83 fb 08          	cmp    $0x8,%rbx
    3fad:	72 7a                	jb     4029 <main_graph_mobilenet+0x1d59>
    3faf:	4c 8b 8c 24 e0 01 00 	mov    0x1e0(%rsp),%r9
    3fb6:	00 
    3fb7:	4d 01 c1             	add    %r8,%r9
    3fba:	4c 8b b4 24 d8 01 00 	mov    0x1d8(%rsp),%r14
    3fc1:	00 
    3fc2:	4d 01 c6             	add    %r8,%r14
    3fc5:	4d 29 f1             	sub    %r14,%r9
    3fc8:	49 83 f9 20          	cmp    $0x20,%r9
    3fcc:	41 b9 00 00 00 00    	mov    $0x0,%r9d
    3fd2:	4c 8b bc 24 18 01 00 	mov    0x118(%rsp),%r15
    3fd9:	00 
    3fda:	72 64                	jb     4040 <main_graph_mobilenet+0x1d70>
    3fdc:	4d 89 d9             	mov    %r11,%r9
    3fdf:	4c 8b b4 24 70 02 00 	mov    0x270(%rsp),%r14
    3fe6:	00 
    3fe7:	0f 28 1d f2 a0 00 00 	movaps 0xa0f2(%rip),%xmm3        # e0e0 <_fini+0x164>
    3fee:	66 90                	xchg   %ax,%ax
    3ff0:	42 0f 10 44 35 f0    	movups -0x10(%rbp,%r14,1),%xmm0
    3ff6:	42 0f 10 4c 35 00    	movups 0x0(%rbp,%r14,1),%xmm1
    3ffc:	0f 58 c3             	addps  %xmm3,%xmm0
    3fff:	0f 58 cb             	addps  %xmm3,%xmm1
    4002:	42 0f 11 44 31 f0    	movups %xmm0,-0x10(%rcx,%r14,1)
    4008:	42 0f 11 0c 31       	movups %xmm1,(%rcx,%r14,1)
    400d:	49 83 c6 20          	add    $0x20,%r14
    4011:	49 83 c1 f8          	add    $0xfffffffffffffff8,%r9
    4015:	75 d9                	jne    3ff0 <main_graph_mobilenet+0x1d20>
    4017:	4c 39 db             	cmp    %r11,%rbx
    401a:	4d 89 d9             	mov    %r11,%r9
    401d:	f3 0f 10 0d fb a0 00 	movss  0xa0fb(%rip),%xmm1        # e120 <_fini+0x1a4>
    4024:	00 
    4025:	75 19                	jne    4040 <main_graph_mobilenet+0x1d70>
    4027:	eb 30                	jmp    4059 <main_graph_mobilenet+0x1d89>
    4029:	45 31 c9             	xor    %r9d,%r9d
    402c:	4c 8b bc 24 18 01 00 	mov    0x118(%rsp),%r15
    4033:	00 
    4034:	66 2e 0f 1f 84 00 00 	cs nopw 0x0(%rax,%rax,1)
    403b:	00 00 00 
    403e:	66 90                	xchg   %ax,%ax
    4040:	f3 43 0f 10 04 8f    	movss  (%r15,%r9,4),%xmm0
    4046:	f3 41 0f 58 c6       	addss  %xmm14,%xmm0
    404b:	f3 43 0f 11 04 8c    	movss  %xmm0,(%r12,%r9,4)
    4051:	49 ff c1             	inc    %r9
    4054:	4c 39 cb             	cmp    %r9,%rbx
    4057:	75 e7                	jne    4040 <main_graph_mobilenet+0x1d70>
    4059:	48 83 fb 08          	cmp    $0x8,%rbx
    405d:	0f 82 b2 00 00 00    	jb     4115 <main_graph_mobilenet+0x1e45>
    4063:	4c 8b 8c 24 f0 01 00 	mov    0x1f0(%rsp),%r9
    406a:	00 
    406b:	4d 01 c1             	add    %r8,%r9
    406e:	4c 03 84 24 e8 01 00 	add    0x1e8(%rsp),%r8
    4075:	00 
    4076:	4d 29 c1             	sub    %r8,%r9
    4079:	49 83 f9 20          	cmp    $0x20,%r9
    407d:	41 b8 00 00 00 00    	mov    $0x0,%r8d
    4083:	4c 8b 74 24 20       	mov    0x20(%rsp),%r14
    4088:	4c 8b 8c 24 f0 00 00 	mov    0xf0(%rsp),%r9
    408f:	00 
    4090:	4c 8b 7c 24 10       	mov    0x10(%rsp),%r15
    4095:	4c 8b 24 24          	mov    (%rsp),%r12
    4099:	0f 82 91 00 00 00    	jb     4130 <main_graph_mobilenet+0x1e60>
    409f:	4d 89 d8             	mov    %r11,%r8
    40a2:	4c 8b 8c 24 78 02 00 	mov    0x278(%rsp),%r9
    40a9:	00 
    40aa:	0f 28 15 3f a0 00 00 	movaps 0xa03f(%rip),%xmm2        # e0f0 <_fini+0x174>
    40b1:	66 2e 0f 1f 84 00 00 	cs nopw 0x0(%rax,%rax,1)
    40b8:	00 00 00 
    40bb:	0f 1f 44 00 00       	nopl   0x0(%rax,%rax,1)
    40c0:	42 0f 10 44 0d f0    	movups -0x10(%rbp,%r9,1),%xmm0
    40c6:	42 0f 10 4c 0d 00    	movups 0x0(%rbp,%r9,1),%xmm1
    40cc:	0f 58 c2             	addps  %xmm2,%xmm0
    40cf:	0f 58 ca             	addps  %xmm2,%xmm1
    40d2:	42 0f 11 44 09 f0    	movups %xmm0,-0x10(%rcx,%r9,1)
    40d8:	42 0f 11 0c 09       	movups %xmm1,(%rcx,%r9,1)
    40dd:	49 83 c1 20          	add    $0x20,%r9
    40e1:	49 83 c0 f8          	add    $0xfffffffffffffff8,%r8
    40e5:	75 d9                	jne    40c0 <main_graph_mobilenet+0x1df0>
    40e7:	4c 39 db             	cmp    %r11,%rbx
    40ea:	4d 89 d8             	mov    %r11,%r8
    40ed:	f3 0f 10 0d 2b a0 00 	movss  0xa02b(%rip),%xmm1        # e120 <_fini+0x1a4>
    40f4:	00 
    40f5:	4c 8b 8c 24 f0 00 00 	mov    0xf0(%rsp),%r9
    40fc:	00 
    40fd:	4c 8b 7c 24 10       	mov    0x10(%rsp),%r15
    4102:	4c 8b 24 24          	mov    (%rsp),%r12
    4106:	f3 0f 10 15 1a a0 00 	movss  0xa01a(%rip),%xmm2        # e128 <_fini+0x1ac>
    410d:	00 
    410e:	75 20                	jne    4130 <main_graph_mobilenet+0x1e60>
    4110:	e9 7b f1 ff ff       	jmp    3290 <main_graph_mobilenet+0xfc0>
    4115:	45 31 c0             	xor    %r8d,%r8d
    4118:	4c 8b 74 24 20       	mov    0x20(%rsp),%r14
    411d:	4c 8b 8c 24 f0 00 00 	mov    0xf0(%rsp),%r9
    4124:	00 
    4125:	4c 8b 7c 24 10       	mov    0x10(%rsp),%r15
    412a:	4c 8b 24 24          	mov    (%rsp),%r12
    412e:	66 90                	xchg   %ax,%ax
    4130:	f3 43 0f 10 04 87    	movss  (%r15,%r8,4),%xmm0
    4136:	f3 41 0f 58 c7       	addss  %xmm15,%xmm0
    413b:	f3 43 0f 11 04 84    	movss  %xmm0,(%r12,%r8,4)
    4141:	49 ff c0             	inc    %r8
    4144:	4c 39 c3             	cmp    %r8,%rbx
    4147:	75 e7                	jne    4130 <main_graph_mobilenet+0x1e60>
    4149:	e9 42 f1 ff ff       	jmp    3290 <main_graph_mobilenet+0xfc0>
    414e:	48 8b bc 24 08 02 00 	mov    0x208(%rsp),%rdi
    4155:	00 
    4156:	e8 b5 df ff ff       	call   2110 <free@plt>
    415b:	bf 30 00 00 00       	mov    $0x30,%edi
    4160:	e8 6b df ff ff       	call   20d0 <malloc@plt>
    4165:	48 89 c5             	mov    %rax,%rbp
    4168:	4c 8d 78 0f          	lea    0xf(%rax),%r15
    416c:	49 83 e7 f0          	and    $0xfffffffffffffff0,%r15
    4170:	48 8b 84 24 10 02 00 	mov    0x210(%rsp),%rax
    4177:	00 
    4178:	48 8b 00             	mov    (%rax),%rax
    417b:	49 89 07             	mov    %rax,(%r15)
    417e:	48 8b bc 24 18 02 00 	mov    0x218(%rsp),%rdi
    4185:	00 
    4186:	e8 85 df ff ff       	call   2110 <free@plt>
    418b:	48 8b 84 24 e8 00 00 	mov    0xe8(%rsp),%rax
    4192:	00 
    4193:	48 0f af d8          	imul   %rax,%rbx
    4197:	48 c1 e3 04          	shl    $0x4,%rbx
    419b:	49 8b 0f             	mov    (%r15),%rcx
    419e:	48 85 c9             	test   %rcx,%rcx
    41a1:	48 0f 44 c8          	cmove  %rax,%rcx
    41a5:	48 89 c8             	mov    %rcx,%rax
    41a8:	48 c1 e0 0c          	shl    $0xc,%rax
    41ac:	48 83 f9 ff          	cmp    $0xffffffffffffffff,%rcx
    41b0:	48 8d 04 c0          	lea    (%rax,%rax,8),%rax
    41b4:	be 00 90 00 00       	mov    $0x9000,%esi
    41b9:	48 0f 45 f0          	cmovne %rax,%rsi
    41bd:	48 89 f0             	mov    %rsi,%rax
    41c0:	48 f7 d0             	not    %rax
    41c3:	48 c1 f8 3f          	sar    $0x3f,%rax
    41c7:	48 83 c8 01          	or     $0x1,%rax
    41cb:	48 29 d8             	sub    %rbx,%rax
    41ce:	48 99                	cqto   
    41d0:	48 f7 fe             	idiv   %rsi
    41d3:	49 89 c6             	mov    %rax,%r14
    41d6:	49 f7 d6             	not    %r14
    41d9:	48 89 d8             	mov    %rbx,%rax
    41dc:	48 99                	cqto   
    41de:	48 f7 fe             	idiv   %rsi
    41e1:	48 85 f6             	test   %rsi,%rsi
    41e4:	48 89 c2             	mov    %rax,%rdx
    41e7:	49 0f 48 d6          	cmovs  %r14,%rdx
    41eb:	48 85 db             	test   %rbx,%rbx
    41ee:	48 0f 4e d0          	cmovle %rax,%rdx
    41f2:	48 85 f6             	test   %rsi,%rsi
    41f5:	4c 0f 4e f2          	cmovle %rdx,%r14
    41f9:	48 85 db             	test   %rbx,%rbx
    41fc:	4c 0f 49 f2          	cmovns %rdx,%r14
    4200:	48 83 f9 ff          	cmp    $0xffffffffffffffff,%rcx
    4204:	4c 0f 45 f1          	cmovne %rcx,%r14
    4208:	4c 89 f0             	mov    %r14,%rax
    420b:	48 c1 e0 0a          	shl    $0xa,%rax
    420f:	48 8d 0c c0          	lea    (%rax,%rax,8),%rcx
    4213:	4c 89 f0             	mov    %r14,%rax
    4216:	48 c1 e0 04          	shl    $0x4,%rax
    421a:	49 83 fe ff          	cmp    $0xffffffffffffffff,%r14
    421e:	be 10 00 00 00       	mov    $0x10,%esi
    4223:	48 0f 45 f0          	cmovne %rax,%rsi
    4227:	48 89 f0             	mov    %rsi,%rax
    422a:	48 f7 d0             	not    %rax
    422d:	48 c1 f8 3f          	sar    $0x3f,%rax
    4231:	48 83 c8 01          	or     $0x1,%rax
    4235:	48 29 c8             	sub    %rcx,%rax
    4238:	48 99                	cqto   
    423a:	48 f7 fe             	idiv   %rsi
    423d:	49 89 c4             	mov    %rax,%r12
    4240:	49 f7 d4             	not    %r12
    4243:	48 89 c8             	mov    %rcx,%rax
    4246:	48 99                	cqto   
    4248:	48 f7 fe             	idiv   %rsi
    424b:	48 85 f6             	test   %rsi,%rsi
    424e:	48 89 c2             	mov    %rax,%rdx
    4251:	49 0f 48 d4          	cmovs  %r12,%rdx
    4255:	48 85 c9             	test   %rcx,%rcx
    4258:	48 0f 4e d0          	cmovle %rax,%rdx
    425c:	48 85 f6             	test   %rsi,%rsi
    425f:	4c 0f 4e e2          	cmovle %rdx,%r12
    4263:	48 85 c9             	test   %rcx,%rcx
    4266:	4c 0f 49 e2          	cmovns %rdx,%r12
    426a:	49 83 fe ff          	cmp    $0xffffffffffffffff,%r14
    426e:	49 c7 47 08 10 00 00 	movq   $0x10,0x8(%r15)
    4275:	00 
    4276:	49 c7 47 10 30 00 00 	movq   $0x30,0x10(%r15)
    427d:	00 
    427e:	49 c7 47 18 30 00 00 	movq   $0x30,0x18(%r15)
    4285:	00 
    4286:	4c 89 f0             	mov    %r14,%rax
    4289:	49 0f 44 c4          	cmove  %r12,%rax
    428d:	48 89 44 24 60       	mov    %rax,0x60(%rsp)
    4292:	48 89 ef             	mov    %rbp,%rdi
    4295:	e8 76 de ff ff       	call   2110 <free@plt>
    429a:	4c 89 f0             	mov    %r14,%rax
    429d:	48 c1 e0 0e          	shl    $0xe,%rax
    42a1:	48 8d 7c c0 10       	lea    0x10(%rax,%rax,8),%rdi
    42a6:	e8 25 de ff ff       	call   20d0 <malloc@plt>
    42ab:	48 89 c3             	mov    %rax,%rbx
    42ae:	4c 8d 78 0f          	lea    0xf(%rax),%r15
    42b2:	48 89 44 24 08       	mov    %rax,0x8(%rsp)
    42b7:	49 83 e7 f0          	and    $0xfffffffffffffff0,%r15
    42bb:	4c 89 7c 24 30       	mov    %r15,0x30(%rsp)
    42c0:	bf 04 00 00 00       	mov    $0x4,%edi
    42c5:	e8 d6 de ff ff       	call   21a0 <omTensorCreateUntyped@plt>
    42ca:	48 89 c5             	mov    %rax,%rbp
    42cd:	48 89 c7             	mov    %rax,%rdi
    42d0:	31 f6                	xor    %esi,%esi
    42d2:	48 89 da             	mov    %rbx,%rdx
    42d5:	4c 89 f9             	mov    %r15,%rcx
    42d8:	e8 13 de ff ff       	call   20f0 <omTensorSetDataPtr@plt>
    42dd:	be 01 00 00 00       	mov    $0x1,%esi
    42e2:	48 89 ef             	mov    %rbp,%rdi
    42e5:	e8 b6 dd ff ff       	call   20a0 <omTensorSetDataType@plt>
    42ea:	48 89 ef             	mov    %rbp,%rdi
    42ed:	e8 de de ff ff       	call   21d0 <omTensorGetShape@plt>
    42f2:	49 89 c7             	mov    %rax,%r15
    42f5:	48 89 ef             	mov    %rbp,%rdi
    42f8:	e8 73 dd ff ff       	call   2070 <omTensorGetStrides@plt>
    42fd:	4d 89 37             	mov    %r14,(%r15)
    4300:	48 c7 00 00 90 00 00 	movq   $0x9000,(%rax)
    4307:	49 c7 47 08 10 00 00 	movq   $0x10,0x8(%r15)
    430e:	00 
    430f:	48 c7 40 08 00 09 00 	movq   $0x900,0x8(%rax)
    4316:	00 
    4317:	49 c7 47 10 30 00 00 	movq   $0x30,0x10(%r15)
    431e:	00 
    431f:	48 c7 40 10 30 00 00 	movq   $0x30,0x10(%rax)
    4326:	00 
    4327:	49 c7 47 18 30 00 00 	movq   $0x30,0x18(%r15)
    432e:	00 
    432f:	48 c7 40 18 01 00 00 	movq   $0x1,0x18(%rax)
    4336:	00 
    4337:	bf 04 00 00 00       	mov    $0x4,%edi
    433c:	e8 5f de ff ff       	call   21a0 <omTensorCreateUntyped@plt>
    4341:	49 89 c7             	mov    %rax,%r15
    4344:	48 89 c7             	mov    %rax,%rdi
    4347:	31 f6                	xor    %esi,%esi
    4349:	48 8b 9c 24 20 02 00 	mov    0x220(%rsp),%rbx
    4350:	00 
    4351:	48 89 da             	mov    %rbx,%rdx
    4354:	48 8b 8c 24 20 01 00 	mov    0x120(%rsp),%rcx
    435b:	00 
    435c:	e8 8f dd ff ff       	call   20f0 <omTensorSetDataPtr@plt>
    4361:	be 01 00 00 00       	mov    $0x1,%esi
    4366:	4c 89 ff             	mov    %r15,%rdi
    4369:	e8 32 dd ff ff       	call   20a0 <omTensorSetDataType@plt>
    436e:	4c 89 ff             	mov    %r15,%rdi
    4371:	e8 5a de ff ff       	call   21d0 <omTensorGetShape@plt>
    4376:	49 89 c5             	mov    %rax,%r13
    4379:	4c 89 ff             	mov    %r15,%rdi
    437c:	e8 ef dc ff ff       	call   2070 <omTensorGetStrides@plt>
    4381:	4d 89 75 00          	mov    %r14,0x0(%r13)
    4385:	48 c7 00 00 90 00 00 	movq   $0x9000,(%rax)
    438c:	49 c7 45 08 10 00 00 	movq   $0x10,0x8(%r13)
    4393:	00 
    4394:	48 c7 40 08 00 09 00 	movq   $0x900,0x8(%rax)
    439b:	00 
    439c:	49 c7 45 10 30 00 00 	movq   $0x30,0x10(%r13)
    43a3:	00 
    43a4:	48 c7 40 10 30 00 00 	movq   $0x30,0x10(%rax)
    43ab:	00 
    43ac:	49 c7 45 18 30 00 00 	movq   $0x30,0x18(%r13)
    43b3:	00 
    43b4:	48 c7 40 18 01 00 00 	movq   $0x1,0x18(%rax)
    43bb:	00 
    43bc:	48 89 ef             	mov    %rbp,%rdi
    43bf:	4c 89 fe             	mov    %r15,%rsi
    43c2:	e8 29 de ff ff       	call   21f0 <Relu@plt>
    43c7:	48 89 ef             	mov    %rbp,%rdi
    43ca:	e8 e1 dd ff ff       	call   21b0 <omTensorDestroy@plt>
    43cf:	4c 89 ff             	mov    %r15,%rdi
    43d2:	e8 d9 dd ff ff       	call   21b0 <omTensorDestroy@plt>
    43d7:	48 89 df             	mov    %rbx,%rdi
    43da:	e8 31 dd ff ff       	call   2110 <free@plt>
    43df:	4c 89 f0             	mov    %r14,%rax
    43e2:	48 c1 e0 0c          	shl    $0xc,%rax
    43e6:	48 8d 7c c0 10       	lea    0x10(%rax,%rax,8),%rdi
    43eb:	48 89 7c 24 10       	mov    %rdi,0x10(%rsp)
    43f0:	e8 db dc ff ff       	call   20d0 <malloc@plt>
    43f5:	48 89 c3             	mov    %rax,%rbx
    43f8:	4c 8d 78 0f          	lea    0xf(%rax),%r15
    43fc:	48 89 44 24 20       	mov    %rax,0x20(%rsp)
    4401:	49 83 e7 f0          	and    $0xfffffffffffffff0,%r15
    4405:	4c 89 3c 24          	mov    %r15,(%rsp)
    4409:	bf 04 00 00 00       	mov    $0x4,%edi
    440e:	e8 8d dd ff ff       	call   21a0 <omTensorCreateUntyped@plt>
    4413:	49 89 c5             	mov    %rax,%r13
    4416:	48 89 c7             	mov    %rax,%rdi
    4419:	31 f6                	xor    %esi,%esi
    441b:	48 89 da             	mov    %rbx,%rdx
    441e:	4c 89 f9             	mov    %r15,%rcx
    4421:	e8 ca dc ff ff       	call   20f0 <omTensorSetDataPtr@plt>
    4426:	be 01 00 00 00       	mov    $0x1,%esi
    442b:	4c 89 eb             	mov    %r13,%rbx
    442e:	4c 89 6c 24 50       	mov    %r13,0x50(%rsp)
    4433:	4c 89 ef             	mov    %r13,%rdi
    4436:	e8 65 dc ff ff       	call   20a0 <omTensorSetDataType@plt>
    443b:	4c 89 ef             	mov    %r13,%rdi
    443e:	e8 8d dd ff ff       	call   21d0 <omTensorGetShape@plt>
    4443:	49 89 c5             	mov    %rax,%r13
    4446:	48 89 df             	mov    %rbx,%rdi
    4449:	e8 22 dc ff ff       	call   2070 <omTensorGetStrides@plt>
    444e:	4d 89 75 00          	mov    %r14,0x0(%r13)
    4452:	4d 89 f7             	mov    %r14,%r15
    4455:	4c 89 74 24 40       	mov    %r14,0x40(%rsp)
    445a:	48 c7 00 00 24 00 00 	movq   $0x2400,(%rax)
    4461:	49 c7 45 08 10 00 00 	movq   $0x10,0x8(%r13)
    4468:	00 
    4469:	48 c7 40 08 40 02 00 	movq   $0x240,0x8(%rax)
    4470:	00 
    4471:	49 c7 45 10 18 00 00 	movq   $0x18,0x10(%r13)
    4478:	00 
    4479:	48 c7 40 10 18 00 00 	movq   $0x18,0x10(%rax)
    4480:	00 
    4481:	49 c7 45 18 18 00 00 	movq   $0x18,0x18(%r13)
    4488:	00 
    4489:	48 c7 40 18 01 00 00 	movq   $0x1,0x18(%rax)
    4490:	00 
    4491:	bf 04 00 00 00       	mov    $0x4,%edi
    4496:	e8 05 dd ff ff       	call   21a0 <omTensorCreateUntyped@plt>
    449b:	48 89 c5             	mov    %rax,%rbp
    449e:	48 89 c7             	mov    %rax,%rdi
    44a1:	31 f6                	xor    %esi,%esi
    44a3:	48 8b 5c 24 08       	mov    0x8(%rsp),%rbx
    44a8:	48 89 da             	mov    %rbx,%rdx
    44ab:	48 8b 4c 24 30       	mov    0x30(%rsp),%rcx
    44b0:	e8 3b dc ff ff       	call   20f0 <omTensorSetDataPtr@plt>
    44b5:	be 01 00 00 00       	mov    $0x1,%esi
    44ba:	48 89 ef             	mov    %rbp,%rdi
    44bd:	e8 de db ff ff       	call   20a0 <omTensorSetDataType@plt>
    44c2:	48 89 ef             	mov    %rbp,%rdi
    44c5:	e8 06 dd ff ff       	call   21d0 <omTensorGetShape@plt>
    44ca:	49 89 c6             	mov    %rax,%r14
    44cd:	48 89 ef             	mov    %rbp,%rdi
    44d0:	e8 9b db ff ff       	call   2070 <omTensorGetStrides@plt>
    44d5:	4d 89 3e             	mov    %r15,(%r14)
    44d8:	48 c7 00 00 90 00 00 	movq   $0x9000,(%rax)
    44df:	49 c7 46 08 10 00 00 	movq   $0x10,0x8(%r14)
    44e6:	00 
    44e7:	48 c7 40 08 00 09 00 	movq   $0x900,0x8(%rax)
    44ee:	00 
    44ef:	49 c7 46 10 30 00 00 	movq   $0x30,0x10(%r14)
    44f6:	00 
    44f7:	48 c7 40 10 30 00 00 	movq   $0x30,0x10(%rax)
    44fe:	00 
    44ff:	49 c7 46 18 30 00 00 	movq   $0x30,0x18(%r14)
    4506:	00 
    4507:	48 c7 40 18 01 00 00 	movq   $0x1,0x18(%rax)
    450e:	00 
    450f:	4c 8d 2d 1a 54 01 00 	lea    0x1541a(%rip),%r13        # 19930 <constant_54_mobilenet>
    4516:	bf 04 00 00 00       	mov    $0x4,%edi
    451b:	e8 80 dc ff ff       	call   21a0 <omTensorCreateUntyped@plt>
    4520:	49 89 c6             	mov    %rax,%r14
    4523:	48 89 c7             	mov    %rax,%rdi
    4526:	31 f6                	xor    %esi,%esi
    4528:	4c 89 ea             	mov    %r13,%rdx
    452b:	4c 89 e9             	mov    %r13,%rcx
    452e:	e8 bd db ff ff       	call   20f0 <omTensorSetDataPtr@plt>
    4533:	be 01 00 00 00       	mov    $0x1,%esi
    4538:	4c 89 f7             	mov    %r14,%rdi
    453b:	e8 60 db ff ff       	call   20a0 <omTensorSetDataType@plt>
    4540:	4c 89 f7             	mov    %r14,%rdi
    4543:	e8 88 dc ff ff       	call   21d0 <omTensorGetShape@plt>
    4548:	49 89 c5             	mov    %rax,%r13
    454b:	4c 89 f7             	mov    %r14,%rdi
    454e:	e8 1d db ff ff       	call   2070 <omTensorGetStrides@plt>
    4553:	49 c7 45 00 10 00 00 	movq   $0x10,0x0(%r13)
    455a:	00 
    455b:	48 c7 00 09 00 00 00 	movq   $0x9,(%rax)
    4562:	49 c7 45 08 01 00 00 	movq   $0x1,0x8(%r13)
    4569:	00 
    456a:	48 c7 40 08 09 00 00 	movq   $0x9,0x8(%rax)
    4571:	00 
    4572:	49 c7 45 10 03 00 00 	movq   $0x3,0x10(%r13)
    4579:	00 
    457a:	48 c7 40 10 03 00 00 	movq   $0x3,0x10(%rax)
    4581:	00 
    4582:	49 c7 45 18 03 00 00 	movq   $0x3,0x18(%r13)
    4589:	00 
    458a:	48 c7 40 18 01 00 00 	movq   $0x1,0x18(%rax)
    4591:	00 
    4592:	4c 8d 3d 37 68 01 00 	lea    0x16837(%rip),%r15        # 1add0 <constant_42_mobilenet>
    4599:	bf 01 00 00 00       	mov    $0x1,%edi
    459e:	e8 fd db ff ff       	call   21a0 <omTensorCreateUntyped@plt>
    45a3:	49 89 c5             	mov    %rax,%r13
    45a6:	48 89 c7             	mov    %rax,%rdi
    45a9:	31 f6                	xor    %esi,%esi
    45ab:	4c 89 fa             	mov    %r15,%rdx
    45ae:	4c 89 f9             	mov    %r15,%rcx
    45b1:	e8 3a db ff ff       	call   20f0 <omTensorSetDataPtr@plt>
    45b6:	be 01 00 00 00       	mov    $0x1,%esi
    45bb:	4c 89 ef             	mov    %r13,%rdi
    45be:	e8 dd da ff ff       	call   20a0 <omTensorSetDataType@plt>
    45c3:	4c 89 ef             	mov    %r13,%rdi
    45c6:	e8 05 dc ff ff       	call   21d0 <omTensorGetShape@plt>
    45cb:	49 89 c7             	mov    %rax,%r15
    45ce:	4c 89 ef             	mov    %r13,%rdi
    45d1:	e8 9a da ff ff       	call   2070 <omTensorGetStrides@plt>
    45d6:	49 c7 07 10 00 00 00 	movq   $0x10,(%r15)
    45dd:	48 c7 00 01 00 00 00 	movq   $0x1,(%rax)
    45e4:	4c 8b 7c 24 50       	mov    0x50(%rsp),%r15
    45e9:	4c 89 ff             	mov    %r15,%rdi
    45ec:	48 89 ee             	mov    %rbp,%rsi
    45ef:	4c 89 f2             	mov    %r14,%rdx
    45f2:	4c 89 e9             	mov    %r13,%rcx
    45f5:	45 31 c0             	xor    %r8d,%r8d
    45f8:	45 31 c9             	xor    %r9d,%r9d
    45fb:	6a 02                	push   $0x2
    45fd:	6a 02                	push   $0x2
    45ff:	6a 01                	push   $0x1
    4601:	6a 01                	push   $0x1
    4603:	e8 58 db ff ff       	call   2160 <Conv2D_bias@plt>
    4608:	48 83 c4 20          	add    $0x20,%rsp
    460c:	4c 89 ff             	mov    %r15,%rdi
    460f:	e8 9c db ff ff       	call   21b0 <omTensorDestroy@plt>
    4614:	48 89 ef             	mov    %rbp,%rdi
    4617:	e8 94 db ff ff       	call   21b0 <omTensorDestroy@plt>
    461c:	4c 89 f7             	mov    %r14,%rdi
    461f:	e8 8c db ff ff       	call   21b0 <omTensorDestroy@plt>
    4624:	4c 89 ef             	mov    %r13,%rdi
    4627:	e8 84 db ff ff       	call   21b0 <omTensorDestroy@plt>
    462c:	48 89 df             	mov    %rbx,%rdi
    462f:	e8 dc da ff ff       	call   2110 <free@plt>
    4634:	48 8b 7c 24 10       	mov    0x10(%rsp),%rdi
    4639:	e8 92 da ff ff       	call   20d0 <malloc@plt>
    463e:	48 89 c3             	mov    %rax,%rbx
    4641:	4c 8d 70 0f          	lea    0xf(%rax),%r14
    4645:	48 89 44 24 10       	mov    %rax,0x10(%rsp)
    464a:	49 83 e6 f0          	and    $0xfffffffffffffff0,%r14
    464e:	4c 89 74 24 30       	mov    %r14,0x30(%rsp)
    4653:	bf 04 00 00 00       	mov    $0x4,%edi
    4658:	e8 43 db ff ff       	call   21a0 <omTensorCreateUntyped@plt>
    465d:	48 89 c5             	mov    %rax,%rbp
    4660:	48 89 c7             	mov    %rax,%rdi
    4663:	31 f6                	xor    %esi,%esi
    4665:	48 89 da             	mov    %rbx,%rdx
    4668:	4c 89 f1             	mov    %r14,%rcx
    466b:	e8 80 da ff ff       	call   20f0 <omTensorSetDataPtr@plt>
    4670:	be 01 00 00 00       	mov    $0x1,%esi
    4675:	48 89 ef             	mov    %rbp,%rdi
    4678:	e8 23 da ff ff       	call   20a0 <omTensorSetDataType@plt>
    467d:	48 89 ef             	mov    %rbp,%rdi
    4680:	e8 4b db ff ff       	call   21d0 <omTensorGetShape@plt>
    4685:	49 89 c6             	mov    %rax,%r14
    4688:	48 89 ef             	mov    %rbp,%rdi
    468b:	e8 e0 d9 ff ff       	call   2070 <omTensorGetStrides@plt>
    4690:	4c 8b 7c 24 40       	mov    0x40(%rsp),%r15
    4695:	4d 89 3e             	mov    %r15,(%r14)
    4698:	48 c7 00 00 24 00 00 	movq   $0x2400,(%rax)
    469f:	49 c7 46 08 10 00 00 	movq   $0x10,0x8(%r14)
    46a6:	00 
    46a7:	48 c7 40 08 40 02 00 	movq   $0x240,0x8(%rax)
    46ae:	00 
    46af:	49 c7 46 10 18 00 00 	movq   $0x18,0x10(%r14)
    46b6:	00 
    46b7:	48 c7 40 10 18 00 00 	movq   $0x18,0x10(%rax)
    46be:	00 
    46bf:	49 c7 46 18 18 00 00 	movq   $0x18,0x18(%r14)
    46c6:	00 
    46c7:	48 c7 40 18 01 00 00 	movq   $0x1,0x18(%rax)
    46ce:	00 
    46cf:	bf 04 00 00 00       	mov    $0x4,%edi
    46d4:	e8 c7 da ff ff       	call   21a0 <omTensorCreateUntyped@plt>
    46d9:	49 89 c6             	mov    %rax,%r14
    46dc:	48 89 c7             	mov    %rax,%rdi
    46df:	31 f6                	xor    %esi,%esi
    46e1:	48 8b 5c 24 20       	mov    0x20(%rsp),%rbx
    46e6:	48 89 da             	mov    %rbx,%rdx
    46e9:	48 8b 0c 24          	mov    (%rsp),%rcx
    46ed:	e8 fe d9 ff ff       	call   20f0 <omTensorSetDataPtr@plt>
    46f2:	be 01 00 00 00       	mov    $0x1,%esi
    46f7:	4c 89 f7             	mov    %r14,%rdi
    46fa:	e8 a1 d9 ff ff       	call   20a0 <omTensorSetDataType@plt>
    46ff:	4c 89 f7             	mov    %r14,%rdi
    4702:	e8 c9 da ff ff       	call   21d0 <omTensorGetShape@plt>
    4707:	49 89 c5             	mov    %rax,%r13
    470a:	4c 89 f7             	mov    %r14,%rdi
    470d:	e8 5e d9 ff ff       	call   2070 <omTensorGetStrides@plt>
    4712:	4d 89 7d 00          	mov    %r15,0x0(%r13)
    4716:	48 c7 00 00 24 00 00 	movq   $0x2400,(%rax)
    471d:	49 c7 45 08 10 00 00 	movq   $0x10,0x8(%r13)
    4724:	00 
    4725:	48 c7 40 08 40 02 00 	movq   $0x240,0x8(%rax)
    472c:	00 
    472d:	49 c7 45 10 18 00 00 	movq   $0x18,0x10(%r13)
    4734:	00 
    4735:	48 c7 40 10 18 00 00 	movq   $0x18,0x10(%rax)
    473c:	00 
    473d:	49 c7 45 18 18 00 00 	movq   $0x18,0x18(%r13)
    4744:	00 
    4745:	48 c7 40 18 01 00 00 	movq   $0x1,0x18(%rax)
    474c:	00 
    474d:	48 89 ef             	mov    %rbp,%rdi
    4750:	4c 89 f6             	mov    %r14,%rsi
    4753:	e8 98 da ff ff       	call   21f0 <Relu@plt>
    4758:	48 89 ef             	mov    %rbp,%rdi
    475b:	e8 50 da ff ff       	call   21b0 <omTensorDestroy@plt>
    4760:	4c 89 f7             	mov    %r14,%rdi
    4763:	e8 48 da ff ff       	call   21b0 <omTensorDestroy@plt>
    4768:	48 89 df             	mov    %rbx,%rdi
    476b:	e8 a0 d9 ff ff       	call   2110 <free@plt>
    4770:	bf 18 00 00 00       	mov    $0x18,%edi
    4775:	e8 56 d9 ff ff       	call   20d0 <malloc@plt>
    477a:	48 89 44 24 58       	mov    %rax,0x58(%rsp)
    477f:	48 83 c0 0f          	add    $0xf,%rax
    4783:	48 83 e0 f0          	and    $0xfffffffffffffff0,%rax
    4787:	4c 89 fb             	mov    %r15,%rbx
    478a:	48 89 44 24 78       	mov    %rax,0x78(%rsp)
    478f:	4c 89 38             	mov    %r15,(%rax)
    4792:	bf 28 00 00 00       	mov    $0x28,%edi
    4797:	e8 34 d9 ff ff       	call   20d0 <malloc@plt>
    479c:	48 8d 48 0f          	lea    0xf(%rax),%rcx
    47a0:	48 83 e1 f0          	and    $0xfffffffffffffff0,%rcx
    47a4:	4c 89 39             	mov    %r15,(%rcx)
    47a7:	48 c7 41 08 10 00 00 	movq   $0x10,0x8(%rcx)
    47ae:	00 
    47af:	48 c7 41 10 ff ff ff 	movq   $0xffffffffffffffff,0x10(%rcx)
    47b6:	ff 
    47b7:	48 89 c7             	mov    %rax,%rdi
    47ba:	e8 51 d9 ff ff       	call   2110 <free@plt>
    47bf:	4c 89 e0             	mov    %r12,%rax
    47c2:	48 c1 e0 04          	shl    $0x4,%rax
    47c6:	48 89 44 24 20       	mov    %rax,0x20(%rsp)
    47cb:	4c 89 e3             	mov    %r12,%rbx
    47ce:	48 c1 e3 05          	shl    $0x5,%rbx
    47d2:	48 8b 6c 24 60       	mov    0x60(%rsp),%rbp
    47d7:	48 89 e8             	mov    %rbp,%rax
    47da:	48 0f af c3          	imul   %rbx,%rax
    47de:	48 8d 3c 85 10 00 00 	lea    0x10(,%rax,4),%rdi
    47e5:	00 
    47e6:	48 89 3c 24          	mov    %rdi,(%rsp)
    47ea:	e8 e1 d8 ff ff       	call   20d0 <malloc@plt>
    47ef:	49 89 c6             	mov    %rax,%r14
    47f2:	4c 8d 78 0f          	lea    0xf(%rax),%r15
    47f6:	49 83 e7 f0          	and    $0xfffffffffffffff0,%r15
    47fa:	bf 03 00 00 00       	mov    $0x3,%edi
    47ff:	e8 9c d9 ff ff       	call   21a0 <omTensorCreateUntyped@plt>
    4804:	49 89 c5             	mov    %rax,%r13
    4807:	48 89 c7             	mov    %rax,%rdi
    480a:	31 f6                	xor    %esi,%esi
    480c:	4c 89 74 24 70       	mov    %r14,0x70(%rsp)
    4811:	4c 89 f2             	mov    %r14,%rdx
    4814:	4c 89 7c 24 08       	mov    %r15,0x8(%rsp)
    4819:	4c 89 f9             	mov    %r15,%rcx
    481c:	e8 cf d8 ff ff       	call   20f0 <omTensorSetDataPtr@plt>
    4821:	be 01 00 00 00       	mov    $0x1,%esi
    4826:	4c 89 ef             	mov    %r13,%rdi
    4829:	e8 72 d8 ff ff       	call   20a0 <omTensorSetDataType@plt>
    482e:	4c 89 ef             	mov    %r13,%rdi
    4831:	e8 9a d9 ff ff       	call   21d0 <omTensorGetShape@plt>
    4836:	49 89 c6             	mov    %rax,%r14
    4839:	4c 89 ef             	mov    %r13,%rdi
    483c:	e8 2f d8 ff ff       	call   2070 <omTensorGetStrides@plt>
    4841:	49 89 2e             	mov    %rbp,(%r14)
    4844:	48 89 18             	mov    %rbx,(%rax)
    4847:	49 c7 46 08 20 00 00 	movq   $0x20,0x8(%r14)
    484e:	00 
    484f:	4c 89 60 08          	mov    %r12,0x8(%rax)
    4853:	4d 89 66 10          	mov    %r12,0x10(%r14)
    4857:	48 c7 40 10 01 00 00 	movq   $0x1,0x10(%rax)
    485e:	00 
    485f:	bf 02 00 00 00       	mov    $0x2,%edi
    4864:	e8 37 d9 ff ff       	call   21a0 <omTensorCreateUntyped@plt>
    4869:	49 89 c6             	mov    %rax,%r14
    486c:	48 8d 0d 9d 6e 0d 00 	lea    0xd6e9d(%rip),%rcx        # db710 <constant_12_mobilenet>
    4873:	48 89 c7             	mov    %rax,%rdi
    4876:	31 f6                	xor    %esi,%esi
    4878:	48 89 ca             	mov    %rcx,%rdx
    487b:	e8 70 d8 ff ff       	call   20f0 <omTensorSetDataPtr@plt>
    4880:	be 01 00 00 00       	mov    $0x1,%esi
    4885:	4c 89 f7             	mov    %r14,%rdi
    4888:	e8 13 d8 ff ff       	call   20a0 <omTensorSetDataType@plt>
    488d:	4c 89 f7             	mov    %r14,%rdi
    4890:	e8 3b d9 ff ff       	call   21d0 <omTensorGetShape@plt>
    4895:	48 89 c3             	mov    %rax,%rbx
    4898:	4c 89 f7             	mov    %r14,%rdi
    489b:	e8 d0 d7 ff ff       	call   2070 <omTensorGetStrides@plt>
    48a0:	48 c7 03 20 00 00 00 	movq   $0x20,(%rbx)
    48a7:	48 c7 00 10 00 00 00 	movq   $0x10,(%rax)
    48ae:	48 c7 43 08 10 00 00 	movq   $0x10,0x8(%rbx)
    48b5:	00 
    48b6:	48 c7 40 08 01 00 00 	movq   $0x1,0x8(%rax)
    48bd:	00 
    48be:	bf 03 00 00 00       	mov    $0x3,%edi
    48c3:	e8 d8 d8 ff ff       	call   21a0 <omTensorCreateUntyped@plt>
    48c8:	48 89 c3             	mov    %rax,%rbx
    48cb:	48 89 c7             	mov    %rax,%rdi
    48ce:	31 f6                	xor    %esi,%esi
    48d0:	48 8b 54 24 10       	mov    0x10(%rsp),%rdx
    48d5:	48 8b 4c 24 30       	mov    0x30(%rsp),%rcx
    48da:	e8 11 d8 ff ff       	call   20f0 <omTensorSetDataPtr@plt>
    48df:	be 01 00 00 00       	mov    $0x1,%esi
    48e4:	48 89 df             	mov    %rbx,%rdi
    48e7:	e8 b4 d7 ff ff       	call   20a0 <omTensorSetDataType@plt>
    48ec:	48 89 df             	mov    %rbx,%rdi
    48ef:	e8 dc d8 ff ff       	call   21d0 <omTensorGetShape@plt>
    48f4:	49 89 c7             	mov    %rax,%r15
    48f7:	48 89 df             	mov    %rbx,%rdi
    48fa:	e8 71 d7 ff ff       	call   2070 <omTensorGetStrides@plt>
    48ff:	49 89 2f             	mov    %rbp,(%r15)
    4902:	48 8b 4c 24 20       	mov    0x20(%rsp),%rcx
    4907:	48 89 08             	mov    %rcx,(%rax)
    490a:	49 c7 47 08 10 00 00 	movq   $0x10,0x8(%r15)
    4911:	00 
    4912:	4c 89 60 08          	mov    %r12,0x8(%rax)
    4916:	4d 89 67 10          	mov    %r12,0x10(%r15)
    491a:	48 c7 40 10 01 00 00 	movq   $0x1,0x10(%rax)
    4921:	00 
    4922:	4c 89 ef             	mov    %r13,%rdi
    4925:	4c 89 f6             	mov    %r14,%rsi
    4928:	48 89 da             	mov    %rbx,%rdx
    492b:	e8 20 d7 ff ff       	call   2050 <MatMul@plt>
    4930:	4c 89 ef             	mov    %r13,%rdi
    4933:	e8 78 d8 ff ff       	call   21b0 <omTensorDestroy@plt>
    4938:	4c 89 f7             	mov    %r14,%rdi
    493b:	e8 70 d8 ff ff       	call   21b0 <omTensorDestroy@plt>
    4940:	48 89 df             	mov    %rbx,%rdi
    4943:	e8 68 d8 ff ff       	call   21b0 <omTensorDestroy@plt>
    4948:	48 8b 7c 24 10       	mov    0x10(%rsp),%rdi
    494d:	e8 be d7 ff ff       	call   2110 <free@plt>
    4952:	48 8b 3c 24          	mov    (%rsp),%rdi
    4956:	e8 75 d7 ff ff       	call   20d0 <malloc@plt>
    495b:	48 89 44 24 50       	mov    %rax,0x50(%rsp)
    4960:	48 83 c0 0f          	add    $0xf,%rax
    4964:	48 83 e0 f0          	and    $0xfffffffffffffff0,%rax
    4968:	48 89 44 24 40       	mov    %rax,0x40(%rsp)
    496d:	48 85 ed             	test   %rbp,%rbp
    4970:	0f 8e 58 01 00 00    	jle    4ace <main_graph_mobilenet+0x27fe>
    4976:	4c 89 e0             	mov    %r12,%rax
    4979:	48 c1 e0 07          	shl    $0x7,%rax
    497d:	48 89 44 24 10       	mov    %rax,0x10(%rsp)
    4982:	4a 8d 0c a5 00 00 00 	lea    0x0(,%r12,4),%rcx
    4989:	00 
    498a:	4c 89 e3             	mov    %r12,%rbx
    498d:	48 83 e3 f8          	and    $0xfffffffffffffff8,%rbx
    4991:	48 8b 6c 24 40       	mov    0x40(%rsp),%rbp
    4996:	48 8d 45 10          	lea    0x10(%rbp),%rax
    499a:	48 89 04 24          	mov    %rax,(%rsp)
    499e:	48 8b 44 24 08       	mov    0x8(%rsp),%rax
    49a3:	48 8d 50 10          	lea    0x10(%rax),%rdx
    49a7:	48 89 54 24 20       	mov    %rdx,0x20(%rsp)
    49ac:	45 31 c0             	xor    %r8d,%r8d
    49af:	4c 8d 0d da 7c 01 00 	lea    0x17cda(%rip),%r9        # 1c690 <constant_25_mobilenet>
    49b6:	48 89 44 24 30       	mov    %rax,0x30(%rsp)
    49bb:	eb 27                	jmp    49e4 <main_graph_mobilenet+0x2714>
    49bd:	0f 1f 00             	nopl   (%rax)
    49c0:	49 ff c0             	inc    %r8
    49c3:	48 8b 44 24 10       	mov    0x10(%rsp),%rax
    49c8:	48 01 04 24          	add    %rax,(%rsp)
    49cc:	48 01 44 24 20       	add    %rax,0x20(%rsp)
    49d1:	48 01 c5             	add    %rax,%rbp
    49d4:	48 01 44 24 30       	add    %rax,0x30(%rsp)
    49d9:	4c 3b 44 24 60       	cmp    0x60(%rsp),%r8
    49de:	0f 84 ea 00 00 00    	je     4ace <main_graph_mobilenet+0x27fe>
    49e4:	4d 85 e4             	test   %r12,%r12
    49e7:	7e d7                	jle    49c0 <main_graph_mobilenet+0x26f0>
    49e9:	4c 8b 74 24 10       	mov    0x10(%rsp),%r14
    49ee:	4d 0f af f0          	imul   %r8,%r14
    49f2:	48 8b 44 24 40       	mov    0x40(%rsp),%rax
    49f7:	4e 8d 3c 30          	lea    (%rax,%r14,1),%r15
    49fb:	4c 03 74 24 08       	add    0x8(%rsp),%r14
    4a00:	4c 8b 6c 24 30       	mov    0x30(%rsp),%r13
    4a05:	49 89 eb             	mov    %rbp,%r11
    4a08:	48 8b 7c 24 20       	mov    0x20(%rsp),%rdi
    4a0d:	48 8b 34 24          	mov    (%rsp),%rsi
    4a11:	31 c0                	xor    %eax,%eax
    4a13:	eb 20                	jmp    4a35 <main_graph_mobilenet+0x2765>
    4a15:	66 2e 0f 1f 84 00 00 	cs nopw 0x0(%rax,%rax,1)
    4a1c:	00 00 00 
    4a1f:	90                   	nop
    4a20:	48 ff c0             	inc    %rax
    4a23:	48 01 ce             	add    %rcx,%rsi
    4a26:	48 01 cf             	add    %rcx,%rdi
    4a29:	49 01 cb             	add    %rcx,%r11
    4a2c:	49 01 cd             	add    %rcx,%r13
    4a2f:	48 83 f8 20          	cmp    $0x20,%rax
    4a33:	74 8b                	je     49c0 <main_graph_mobilenet+0x26f0>
    4a35:	49 83 fc 08          	cmp    $0x8,%r12
    4a39:	f3 41 0f 10 04 81    	movss  (%r9,%rax,4),%xmm0
    4a3f:	73 0f                	jae    4a50 <main_graph_mobilenet+0x2780>
    4a41:	31 d2                	xor    %edx,%edx
    4a43:	eb 6b                	jmp    4ab0 <main_graph_mobilenet+0x27e0>
    4a45:	66 2e 0f 1f 84 00 00 	cs nopw 0x0(%rax,%rax,1)
    4a4c:	00 00 00 
    4a4f:	90                   	nop
    4a50:	48 89 ca             	mov    %rcx,%rdx
    4a53:	48 0f af d0          	imul   %rax,%rdx
    4a57:	4d 8d 14 16          	lea    (%r14,%rdx,1),%r10
    4a5b:	4c 01 fa             	add    %r15,%rdx
    4a5e:	4c 29 d2             	sub    %r10,%rdx
    4a61:	48 83 fa 20          	cmp    $0x20,%rdx
    4a65:	73 09                	jae    4a70 <main_graph_mobilenet+0x27a0>
    4a67:	31 d2                	xor    %edx,%edx
    4a69:	eb 45                	jmp    4ab0 <main_graph_mobilenet+0x27e0>
    4a6b:	0f 1f 44 00 00       	nopl   0x0(%rax,%rax,1)
    4a70:	0f 28 c8             	movaps %xmm0,%xmm1
    4a73:	0f c6 c8 00          	shufps $0x0,%xmm0,%xmm1
    4a77:	31 d2                	xor    %edx,%edx
    4a79:	0f 1f 80 00 00 00 00 	nopl   0x0(%rax)
    4a80:	0f 10 54 97 f0       	movups -0x10(%rdi,%rdx,4),%xmm2
    4a85:	0f 10 1c 97          	movups (%rdi,%rdx,4),%xmm3
    4a89:	0f 58 d1             	addps  %xmm1,%xmm2
    4a8c:	0f 58 d9             	addps  %xmm1,%xmm3
    4a8f:	0f 11 54 96 f0       	movups %xmm2,-0x10(%rsi,%rdx,4)
    4a94:	0f 11 1c 96          	movups %xmm3,(%rsi,%rdx,4)
    4a98:	48 83 c2 08          	add    $0x8,%rdx
    4a9c:	48 39 d3             	cmp    %rdx,%rbx
    4a9f:	75 df                	jne    4a80 <main_graph_mobilenet+0x27b0>
    4aa1:	49 39 dc             	cmp    %rbx,%r12
    4aa4:	48 89 da             	mov    %rbx,%rdx
    4aa7:	0f 84 73 ff ff ff    	je     4a20 <main_graph_mobilenet+0x2750>
    4aad:	0f 1f 00             	nopl   (%rax)
    4ab0:	f3 41 0f 10 4c 95 00 	movss  0x0(%r13,%rdx,4),%xmm1
    4ab7:	f3 0f 58 c8          	addss  %xmm0,%xmm1
    4abb:	f3 41 0f 11 0c 93    	movss  %xmm1,(%r11,%rdx,4)
    4ac1:	48 ff c2             	inc    %rdx
    4ac4:	49 39 d4             	cmp    %rdx,%r12
    4ac7:	75 e7                	jne    4ab0 <main_graph_mobilenet+0x27e0>
    4ac9:	e9 52 ff ff ff       	jmp    4a20 <main_graph_mobilenet+0x2750>
    4ace:	48 8b 7c 24 70       	mov    0x70(%rsp),%rdi
    4ad3:	e8 38 d6 ff ff       	call   2110 <free@plt>
    4ad8:	bf 30 00 00 00       	mov    $0x30,%edi
    4add:	e8 ee d5 ff ff       	call   20d0 <malloc@plt>
    4ae2:	49 89 c7             	mov    %rax,%r15
    4ae5:	4c 8d 68 0f          	lea    0xf(%rax),%r13
    4ae9:	49 83 e5 f0          	and    $0xfffffffffffffff0,%r13
    4aed:	48 8b 44 24 78       	mov    0x78(%rsp),%rax
    4af2:	48 8b 00             	mov    (%rax),%rax
    4af5:	49 89 45 00          	mov    %rax,0x0(%r13)
    4af9:	48 8b 7c 24 58       	mov    0x58(%rsp),%rdi
    4afe:	e8 0d d6 ff ff       	call   2110 <free@plt>
    4b03:	48 8b 44 24 60       	mov    0x60(%rsp),%rax
    4b08:	4c 0f af e0          	imul   %rax,%r12
    4b0c:	49 c1 e4 05          	shl    $0x5,%r12
    4b10:	49 8b 4d 00          	mov    0x0(%r13),%rcx
    4b14:	48 85 c9             	test   %rcx,%rcx
    4b17:	48 0f 44 c8          	cmove  %rax,%rcx
    4b1b:	48 89 c8             	mov    %rcx,%rax
    4b1e:	48 c1 e0 0b          	shl    $0xb,%rax
    4b22:	48 83 f9 ff          	cmp    $0xffffffffffffffff,%rcx
    4b26:	48 8d 34 c0          	lea    (%rax,%rax,8),%rsi
    4b2a:	b8 00 48 00 00       	mov    $0x4800,%eax
    4b2f:	48 0f 44 f0          	cmove  %rax,%rsi
    4b33:	48 89 f0             	mov    %rsi,%rax
    4b36:	48 f7 d0             	not    %rax
    4b39:	48 c1 f8 3f          	sar    $0x3f,%rax
    4b3d:	48 83 c8 01          	or     $0x1,%rax
    4b41:	4c 29 e0             	sub    %r12,%rax
    4b44:	48 99                	cqto   
    4b46:	48 f7 fe             	idiv   %rsi
    4b49:	49 89 c6             	mov    %rax,%r14
    4b4c:	49 f7 d6             	not    %r14
    4b4f:	4c 89 e0             	mov    %r12,%rax
    4b52:	48 99                	cqto   
    4b54:	48 f7 fe             	idiv   %rsi
    4b57:	48 85 f6             	test   %rsi,%rsi
    4b5a:	48 89 c2             	mov    %rax,%rdx
    4b5d:	49 0f 48 d6          	cmovs  %r14,%rdx
    4b61:	4d 85 e4             	test   %r12,%r12
    4b64:	48 0f 4e d0          	cmovle %rax,%rdx
    4b68:	48 85 f6             	test   %rsi,%rsi
    4b6b:	4c 0f 4e f2          	cmovle %rdx,%r14
    4b6f:	4d 85 e4             	test   %r12,%r12
    4b72:	4c 0f 49 f2          	cmovns %rdx,%r14
    4b76:	48 83 f9 ff          	cmp    $0xffffffffffffffff,%rcx
    4b7a:	4c 0f 45 f1          	cmovne %rcx,%r14
    4b7e:	4c 89 f0             	mov    %r14,%rax
    4b81:	48 c1 e0 0b          	shl    $0xb,%rax
    4b85:	48 8d 0c c0          	lea    (%rax,%rax,8),%rcx
    4b89:	4c 89 f6             	mov    %r14,%rsi
    4b8c:	48 c1 e6 05          	shl    $0x5,%rsi
    4b90:	49 83 fe ff          	cmp    $0xffffffffffffffff,%r14
    4b94:	b8 20 00 00 00       	mov    $0x20,%eax
    4b99:	48 0f 44 f0          	cmove  %rax,%rsi
    4b9d:	48 89 f0             	mov    %rsi,%rax
    4ba0:	48 f7 d0             	not    %rax
    4ba3:	48 c1 f8 3f          	sar    $0x3f,%rax
    4ba7:	48 83 c8 01          	or     $0x1,%rax
    4bab:	48 29 c8             	sub    %rcx,%rax
    4bae:	48 99                	cqto   
    4bb0:	48 f7 fe             	idiv   %rsi
    4bb3:	48 89 c5             	mov    %rax,%rbp
    4bb6:	48 f7 d5             	not    %rbp
    4bb9:	48 89 c8             	mov    %rcx,%rax
    4bbc:	48 99                	cqto   
    4bbe:	48 f7 fe             	idiv   %rsi
    4bc1:	48 85 f6             	test   %rsi,%rsi
    4bc4:	48 89 c2             	mov    %rax,%rdx
    4bc7:	48 0f 48 d5          	cmovs  %rbp,%rdx
    4bcb:	48 85 c9             	test   %rcx,%rcx
    4bce:	48 0f 4e d0          	cmovle %rax,%rdx
    4bd2:	48 85 f6             	test   %rsi,%rsi
    4bd5:	48 0f 4e ea          	cmovle %rdx,%rbp
    4bd9:	48 85 c9             	test   %rcx,%rcx
    4bdc:	48 0f 49 ea          	cmovns %rdx,%rbp
    4be0:	49 83 fe ff          	cmp    $0xffffffffffffffff,%r14
    4be4:	49 c7 45 08 20 00 00 	movq   $0x20,0x8(%r13)
    4beb:	00 
    4bec:	49 c7 45 10 18 00 00 	movq   $0x18,0x10(%r13)
    4bf3:	00 
    4bf4:	49 c7 45 18 18 00 00 	movq   $0x18,0x18(%r13)
    4bfb:	00 
    4bfc:	4c 89 f0             	mov    %r14,%rax
    4bff:	48 0f 44 c5          	cmove  %rbp,%rax
    4c03:	48 89 44 24 60       	mov    %rax,0x60(%rsp)
    4c08:	4c 89 ff             	mov    %r15,%rdi
    4c0b:	e8 00 d5 ff ff       	call   2110 <free@plt>
    4c10:	4c 89 f0             	mov    %r14,%rax
    4c13:	48 c1 e0 0d          	shl    $0xd,%rax
    4c17:	48 8d 7c c0 10       	lea    0x10(%rax,%rax,8),%rdi
    4c1c:	48 89 7c 24 10       	mov    %rdi,0x10(%rsp)
    4c21:	e8 aa d4 ff ff       	call   20d0 <malloc@plt>
    4c26:	48 89 c3             	mov    %rax,%rbx
    4c29:	4c 8d 78 0f          	lea    0xf(%rax),%r15
    4c2d:	48 89 04 24          	mov    %rax,(%rsp)
    4c31:	49 83 e7 f0          	and    $0xfffffffffffffff0,%r15
    4c35:	4c 89 7c 24 08       	mov    %r15,0x8(%rsp)
    4c3a:	bf 04 00 00 00       	mov    $0x4,%edi
    4c3f:	e8 5c d5 ff ff       	call   21a0 <omTensorCreateUntyped@plt>
    4c44:	49 89 c5             	mov    %rax,%r13
    4c47:	48 89 c7             	mov    %rax,%rdi
    4c4a:	31 f6                	xor    %esi,%esi
    4c4c:	48 89 da             	mov    %rbx,%rdx
    4c4f:	4c 89 f9             	mov    %r15,%rcx
    4c52:	e8 99 d4 ff ff       	call   20f0 <omTensorSetDataPtr@plt>
    4c57:	be 01 00 00 00       	mov    $0x1,%esi
    4c5c:	4c 89 ef             	mov    %r13,%rdi
    4c5f:	e8 3c d4 ff ff       	call   20a0 <omTensorSetDataType@plt>
    4c64:	4c 89 ef             	mov    %r13,%rdi
    4c67:	e8 64 d5 ff ff       	call   21d0 <omTensorGetShape@plt>
    4c6c:	48 89 c3             	mov    %rax,%rbx
    4c6f:	4c 89 ef             	mov    %r13,%rdi
    4c72:	e8 f9 d3 ff ff       	call   2070 <omTensorGetStrides@plt>
    4c77:	4c 89 33             	mov    %r14,(%rbx)
    4c7a:	48 c7 00 00 48 00 00 	movq   $0x4800,(%rax)
    4c81:	48 c7 43 08 20 00 00 	movq   $0x20,0x8(%rbx)
    4c88:	00 
    4c89:	48 c7 40 08 40 02 00 	movq   $0x240,0x8(%rax)
    4c90:	00 
    4c91:	48 c7 43 10 18 00 00 	movq   $0x18,0x10(%rbx)
    4c98:	00 
    4c99:	48 c7 40 10 18 00 00 	movq   $0x18,0x10(%rax)
    4ca0:	00 
    4ca1:	48 c7 43 18 18 00 00 	movq   $0x18,0x18(%rbx)
    4ca8:	00 
    4ca9:	48 c7 40 18 01 00 00 	movq   $0x1,0x18(%rax)
    4cb0:	00 
    4cb1:	bf 04 00 00 00       	mov    $0x4,%edi
    4cb6:	e8 e5 d4 ff ff       	call   21a0 <omTensorCreateUntyped@plt>
    4cbb:	48 89 c3             	mov    %rax,%rbx
    4cbe:	48 89 c7             	mov    %rax,%rdi
    4cc1:	31 f6                	xor    %esi,%esi
    4cc3:	4c 8b 7c 24 50       	mov    0x50(%rsp),%r15
    4cc8:	4c 89 fa             	mov    %r15,%rdx
    4ccb:	48 8b 4c 24 40       	mov    0x40(%rsp),%rcx
    4cd0:	e8 1b d4 ff ff       	call   20f0 <omTensorSetDataPtr@plt>
    4cd5:	be 01 00 00 00       	mov    $0x1,%esi
    4cda:	48 89 df             	mov    %rbx,%rdi
    4cdd:	e8 be d3 ff ff       	call   20a0 <omTensorSetDataType@plt>
    4ce2:	48 89 df             	mov    %rbx,%rdi
    4ce5:	e8 e6 d4 ff ff       	call   21d0 <omTensorGetShape@plt>
    4cea:	49 89 c4             	mov    %rax,%r12
    4ced:	48 89 df             	mov    %rbx,%rdi
    4cf0:	e8 7b d3 ff ff       	call   2070 <omTensorGetStrides@plt>
    4cf5:	4d 89 34 24          	mov    %r14,(%r12)
    4cf9:	48 c7 00 00 48 00 00 	movq   $0x4800,(%rax)
    4d00:	49 c7 44 24 08 20 00 	movq   $0x20,0x8(%r12)
    4d07:	00 00 
    4d09:	48 c7 40 08 40 02 00 	movq   $0x240,0x8(%rax)
    4d10:	00 
    4d11:	49 c7 44 24 10 18 00 	movq   $0x18,0x10(%r12)
    4d18:	00 00 
    4d1a:	48 c7 40 10 18 00 00 	movq   $0x18,0x10(%rax)
    4d21:	00 
    4d22:	49 c7 44 24 18 18 00 	movq   $0x18,0x18(%r12)
    4d29:	00 00 
    4d2b:	48 c7 40 18 01 00 00 	movq   $0x1,0x18(%rax)
    4d32:	00 
    4d33:	4c 89 ef             	mov    %r13,%rdi
    4d36:	48 89 de             	mov    %rbx,%rsi
    4d39:	e8 b2 d4 ff ff       	call   21f0 <Relu@plt>
    4d3e:	4c 89 ef             	mov    %r13,%rdi
    4d41:	e8 6a d4 ff ff       	call   21b0 <omTensorDestroy@plt>
    4d46:	48 89 df             	mov    %rbx,%rdi
    4d49:	e8 62 d4 ff ff       	call   21b0 <omTensorDestroy@plt>
    4d4e:	4c 89 ff             	mov    %r15,%rdi
    4d51:	e8 ba d3 ff ff       	call   2110 <free@plt>
    4d56:	48 8b 7c 24 10       	mov    0x10(%rsp),%rdi
    4d5b:	e8 70 d3 ff ff       	call   20d0 <malloc@plt>
    4d60:	48 89 c3             	mov    %rax,%rbx
    4d63:	4c 8d 78 0f          	lea    0xf(%rax),%r15
    4d67:	48 89 44 24 30       	mov    %rax,0x30(%rsp)
    4d6c:	49 83 e7 f0          	and    $0xfffffffffffffff0,%r15
    4d70:	4c 89 7c 24 20       	mov    %r15,0x20(%rsp)
    4d75:	bf 04 00 00 00       	mov    $0x4,%edi
    4d7a:	e8 21 d4 ff ff       	call   21a0 <omTensorCreateUntyped@plt>
    4d7f:	49 89 c4             	mov    %rax,%r12
    4d82:	48 89 c7             	mov    %rax,%rdi
    4d85:	31 f6                	xor    %esi,%esi
    4d87:	48 89 da             	mov    %rbx,%rdx
    4d8a:	4c 89 f9             	mov    %r15,%rcx
    4d8d:	e8 5e d3 ff ff       	call   20f0 <omTensorSetDataPtr@plt>
    4d92:	be 01 00 00 00       	mov    $0x1,%esi
    4d97:	4c 89 e3             	mov    %r12,%rbx
    4d9a:	4c 89 64 24 40       	mov    %r12,0x40(%rsp)
    4d9f:	4c 89 e7             	mov    %r12,%rdi
    4da2:	e8 f9 d2 ff ff       	call   20a0 <omTensorSetDataType@plt>
    4da7:	4c 89 e7             	mov    %r12,%rdi
    4daa:	e8 21 d4 ff ff       	call   21d0 <omTensorGetShape@plt>
    4daf:	49 89 c4             	mov    %rax,%r12
    4db2:	48 89 df             	mov    %rbx,%rdi
    4db5:	e8 b6 d2 ff ff       	call   2070 <omTensorGetStrides@plt>
    4dba:	4d 89 34 24          	mov    %r14,(%r12)
    4dbe:	48 c7 00 00 48 00 00 	movq   $0x4800,(%rax)
    4dc5:	49 c7 44 24 08 20 00 	movq   $0x20,0x8(%r12)
    4dcc:	00 00 
    4dce:	48 c7 40 08 40 02 00 	movq   $0x240,0x8(%rax)
    4dd5:	00 
    4dd6:	49 c7 44 24 10 18 00 	movq   $0x18,0x10(%r12)
    4ddd:	00 00 
    4ddf:	48 c7 40 10 18 00 00 	movq   $0x18,0x10(%rax)
    4de6:	00 
    4de7:	49 c7 44 24 18 18 00 	movq   $0x18,0x18(%r12)
    4dee:	00 00 
    4df0:	48 c7 40 18 01 00 00 	movq   $0x1,0x18(%rax)
    4df7:	00 
    4df8:	bf 04 00 00 00       	mov    $0x4,%edi
    4dfd:	e8 9e d3 ff ff       	call   21a0 <omTensorCreateUntyped@plt>
    4e02:	48 89 c3             	mov    %rax,%rbx
    4e05:	48 89 c7             	mov    %rax,%rdi
    4e08:	31 f6                	xor    %esi,%esi
    4e0a:	48 8b 14 24          	mov    (%rsp),%rdx
    4e0e:	48 8b 4c 24 08       	mov    0x8(%rsp),%rcx
    4e13:	e8 d8 d2 ff ff       	call   20f0 <omTensorSetDataPtr@plt>
    4e18:	be 01 00 00 00       	mov    $0x1,%esi
    4e1d:	48 89 df             	mov    %rbx,%rdi
    4e20:	e8 7b d2 ff ff       	call   20a0 <omTensorSetDataType@plt>
    4e25:	48 89 df             	mov    %rbx,%rdi
    4e28:	e8 a3 d3 ff ff       	call   21d0 <omTensorGetShape@plt>
    4e2d:	49 89 c7             	mov    %rax,%r15
    4e30:	48 89 df             	mov    %rbx,%rdi
    4e33:	e8 38 d2 ff ff       	call   2070 <omTensorGetStrides@plt>
    4e38:	4d 89 37             	mov    %r14,(%r15)
    4e3b:	48 c7 00 00 48 00 00 	movq   $0x4800,(%rax)
    4e42:	49 c7 47 08 20 00 00 	movq   $0x20,0x8(%r15)
    4e49:	00 
    4e4a:	48 c7 40 08 40 02 00 	movq   $0x240,0x8(%rax)
    4e51:	00 
    4e52:	49 c7 47 10 18 00 00 	movq   $0x18,0x10(%r15)
    4e59:	00 
    4e5a:	48 c7 40 10 18 00 00 	movq   $0x18,0x10(%rax)
    4e61:	00 
    4e62:	49 c7 47 18 18 00 00 	movq   $0x18,0x18(%r15)
    4e69:	00 
    4e6a:	48 c7 40 18 01 00 00 	movq   $0x1,0x18(%rax)
    4e71:	00 
    4e72:	4c 8d 25 57 ae 00 00 	lea    0xae57(%rip),%r12        # fcd0 <constant_64_mobilenet>
    4e79:	bf 04 00 00 00       	mov    $0x4,%edi
    4e7e:	e8 1d d3 ff ff       	call   21a0 <omTensorCreateUntyped@plt>
    4e83:	49 89 c7             	mov    %rax,%r15
    4e86:	48 89 c7             	mov    %rax,%rdi
    4e89:	31 f6                	xor    %esi,%esi
    4e8b:	4c 89 e2             	mov    %r12,%rdx
    4e8e:	4c 89 e1             	mov    %r12,%rcx
    4e91:	e8 5a d2 ff ff       	call   20f0 <omTensorSetDataPtr@plt>
    4e96:	be 01 00 00 00       	mov    $0x1,%esi
    4e9b:	4c 89 ff             	mov    %r15,%rdi
    4e9e:	e8 fd d1 ff ff       	call   20a0 <omTensorSetDataType@plt>
    4ea3:	4c 89 ff             	mov    %r15,%rdi
    4ea6:	e8 25 d3 ff ff       	call   21d0 <omTensorGetShape@plt>
    4eab:	49 89 c4             	mov    %rax,%r12
    4eae:	4c 89 ff             	mov    %r15,%rdi
    4eb1:	e8 ba d1 ff ff       	call   2070 <omTensorGetStrides@plt>
    4eb6:	49 c7 04 24 20 00 00 	movq   $0x20,(%r12)
    4ebd:	00 
    4ebe:	48 c7 00 09 00 00 00 	movq   $0x9,(%rax)
    4ec5:	49 c7 44 24 08 01 00 	movq   $0x1,0x8(%r12)
    4ecc:	00 00 
    4ece:	48 c7 40 08 09 00 00 	movq   $0x9,0x8(%rax)
    4ed5:	00 
    4ed6:	49 c7 44 24 10 03 00 	movq   $0x3,0x10(%r12)
    4edd:	00 00 
    4edf:	48 c7 40 10 03 00 00 	movq   $0x3,0x10(%rax)
    4ee6:	00 
    4ee7:	49 c7 44 24 18 03 00 	movq   $0x3,0x18(%r12)
    4eee:	00 00 
    4ef0:	48 c7 40 18 01 00 00 	movq   $0x1,0x18(%rax)
    4ef7:	00 
    4ef8:	4c 8d 2d 11 5f 01 00 	lea    0x15f11(%rip),%r13        # 1ae10 <constant_41_mobilenet>
    4eff:	bf 01 00 00 00       	mov    $0x1,%edi
    4f04:	e8 97 d2 ff ff       	call   21a0 <omTensorCreateUntyped@plt>
    4f09:	49 89 c4             	mov    %rax,%r12
    4f0c:	48 89 c7             	mov    %rax,%rdi
    4f0f:	31 f6                	xor    %esi,%esi
    4f11:	4c 89 ea             	mov    %r13,%rdx
    4f14:	4c 89 e9             	mov    %r13,%rcx
    4f17:	e8 d4 d1 ff ff       	call   20f0 <omTensorSetDataPtr@plt>
    4f1c:	be 01 00 00 00       	mov    $0x1,%esi
    4f21:	4c 89 e7             	mov    %r12,%rdi
    4f24:	e8 77 d1 ff ff       	call   20a0 <omTensorSetDataType@plt>
    4f29:	4c 89 e7             	mov    %r12,%rdi
    4f2c:	e8 9f d2 ff ff       	call   21d0 <omTensorGetShape@plt>
    4f31:	49 89 c5             	mov    %rax,%r13
    4f34:	4c 89 e7             	mov    %r12,%rdi
    4f37:	e8 34 d1 ff ff       	call   2070 <omTensorGetStrides@plt>
    4f3c:	49 c7 45 00 20 00 00 	movq   $0x20,0x0(%r13)
    4f43:	00 
    4f44:	48 c7 00 01 00 00 00 	movq   $0x1,(%rax)
    4f4b:	4c 8b 6c 24 40       	mov    0x40(%rsp),%r13
    4f50:	4c 89 ef             	mov    %r13,%rdi
    4f53:	48 89 de             	mov    %rbx,%rsi
    4f56:	4c 89 fa             	mov    %r15,%rdx
    4f59:	4c 89 e1             	mov    %r12,%rcx
    4f5c:	41 b8 01 00 00 00    	mov    $0x1,%r8d
    4f62:	41 b9 01 00 00 00    	mov    $0x1,%r9d
    4f68:	6a 01                	push   $0x1
    4f6a:	6a 01                	push   $0x1
    4f6c:	6a 01                	push   $0x1
    4f6e:	6a 01                	push   $0x1
    4f70:	e8 eb d1 ff ff       	call   2160 <Conv2D_bias@plt>
    4f75:	48 83 c4 20          	add    $0x20,%rsp
    4f79:	4c 89 ef             	mov    %r13,%rdi
    4f7c:	e8 2f d2 ff ff       	call   21b0 <omTensorDestroy@plt>
    4f81:	48 89 df             	mov    %rbx,%rdi
    4f84:	e8 27 d2 ff ff       	call   21b0 <omTensorDestroy@plt>
    4f89:	4c 89 ff             	mov    %r15,%rdi
    4f8c:	e8 1f d2 ff ff       	call   21b0 <omTensorDestroy@plt>
    4f91:	4c 89 e7             	mov    %r12,%rdi
    4f94:	e8 17 d2 ff ff       	call   21b0 <omTensorDestroy@plt>
    4f99:	48 8b 3c 24          	mov    (%rsp),%rdi
    4f9d:	e8 6e d1 ff ff       	call   2110 <free@plt>
    4fa2:	48 8b 7c 24 10       	mov    0x10(%rsp),%rdi
    4fa7:	e8 24 d1 ff ff       	call   20d0 <malloc@plt>
    4fac:	49 89 c7             	mov    %rax,%r15
    4faf:	4c 8d 60 0f          	lea    0xf(%rax),%r12
    4fb3:	48 89 44 24 10       	mov    %rax,0x10(%rsp)
    4fb8:	49 83 e4 f0          	and    $0xfffffffffffffff0,%r12
    4fbc:	4c 89 24 24          	mov    %r12,(%rsp)
    4fc0:	bf 04 00 00 00       	mov    $0x4,%edi
    4fc5:	e8 d6 d1 ff ff       	call   21a0 <omTensorCreateUntyped@plt>
    4fca:	48 89 c3             	mov    %rax,%rbx
    4fcd:	48 89 c7             	mov    %rax,%rdi
    4fd0:	31 f6                	xor    %esi,%esi
    4fd2:	4c 89 fa             	mov    %r15,%rdx
    4fd5:	4c 89 e1             	mov    %r12,%rcx
    4fd8:	e8 13 d1 ff ff       	call   20f0 <omTensorSetDataPtr@plt>
    4fdd:	be 01 00 00 00       	mov    $0x1,%esi
    4fe2:	48 89 df             	mov    %rbx,%rdi
    4fe5:	e8 b6 d0 ff ff       	call   20a0 <omTensorSetDataType@plt>
    4fea:	48 89 df             	mov    %rbx,%rdi
    4fed:	e8 de d1 ff ff       	call   21d0 <omTensorGetShape@plt>
    4ff2:	49 89 c4             	mov    %rax,%r12
    4ff5:	48 89 df             	mov    %rbx,%rdi
    4ff8:	e8 73 d0 ff ff       	call   2070 <omTensorGetStrides@plt>
    4ffd:	4d 89 34 24          	mov    %r14,(%r12)
    5001:	48 c7 00 00 48 00 00 	movq   $0x4800,(%rax)
    5008:	49 c7 44 24 08 20 00 	movq   $0x20,0x8(%r12)
    500f:	00 00 
    5011:	48 c7 40 08 40 02 00 	movq   $0x240,0x8(%rax)
    5018:	00 
    5019:	49 c7 44 24 10 18 00 	movq   $0x18,0x10(%r12)
    5020:	00 00 
    5022:	48 c7 40 10 18 00 00 	movq   $0x18,0x10(%rax)
    5029:	00 
    502a:	49 c7 44 24 18 18 00 	movq   $0x18,0x18(%r12)
    5031:	00 00 
    5033:	48 c7 40 18 01 00 00 	movq   $0x1,0x18(%rax)
    503a:	00 
    503b:	bf 04 00 00 00       	mov    $0x4,%edi
    5040:	e8 5b d1 ff ff       	call   21a0 <omTensorCreateUntyped@plt>
    5045:	49 89 c4             	mov    %rax,%r12
    5048:	48 89 c7             	mov    %rax,%rdi
    504b:	31 f6                	xor    %esi,%esi
    504d:	4c 8b 7c 24 30       	mov    0x30(%rsp),%r15
    5052:	4c 89 fa             	mov    %r15,%rdx
    5055:	48 8b 4c 24 20       	mov    0x20(%rsp),%rcx
    505a:	e8 91 d0 ff ff       	call   20f0 <omTensorSetDataPtr@plt>
    505f:	be 01 00 00 00       	mov    $0x1,%esi
    5064:	4c 89 e7             	mov    %r12,%rdi
    5067:	e8 34 d0 ff ff       	call   20a0 <omTensorSetDataType@plt>
    506c:	4c 89 e7             	mov    %r12,%rdi
    506f:	e8 5c d1 ff ff       	call   21d0 <omTensorGetShape@plt>
    5074:	49 89 c5             	mov    %rax,%r13
    5077:	4c 89 e7             	mov    %r12,%rdi
    507a:	e8 f1 cf ff ff       	call   2070 <omTensorGetStrides@plt>
    507f:	4d 89 75 00          	mov    %r14,0x0(%r13)
    5083:	48 c7 00 00 48 00 00 	movq   $0x4800,(%rax)
    508a:	49 c7 45 08 20 00 00 	movq   $0x20,0x8(%r13)
    5091:	00 
    5092:	48 c7 40 08 40 02 00 	movq   $0x240,0x8(%rax)
    5099:	00 
    509a:	49 c7 45 10 18 00 00 	movq   $0x18,0x10(%r13)
    50a1:	00 
    50a2:	48 c7 40 10 18 00 00 	movq   $0x18,0x10(%rax)
    50a9:	00 
    50aa:	49 c7 45 18 18 00 00 	movq   $0x18,0x18(%r13)
    50b1:	00 
    50b2:	48 c7 40 18 01 00 00 	movq   $0x1,0x18(%rax)
    50b9:	00 
    50ba:	48 89 df             	mov    %rbx,%rdi
    50bd:	4c 89 e6             	mov    %r12,%rsi
    50c0:	e8 2b d1 ff ff       	call   21f0 <Relu@plt>
    50c5:	48 89 df             	mov    %rbx,%rdi
    50c8:	e8 e3 d0 ff ff       	call   21b0 <omTensorDestroy@plt>
    50cd:	4c 89 e7             	mov    %r12,%rdi
    50d0:	e8 db d0 ff ff       	call   21b0 <omTensorDestroy@plt>
    50d5:	4c 89 ff             	mov    %r15,%rdi
    50d8:	e8 33 d0 ff ff       	call   2110 <free@plt>
    50dd:	bf 18 00 00 00       	mov    $0x18,%edi
    50e2:	e8 e9 cf ff ff       	call   20d0 <malloc@plt>
    50e7:	48 89 44 24 58       	mov    %rax,0x58(%rsp)
    50ec:	48 83 c0 0f          	add    $0xf,%rax
    50f0:	48 83 e0 f0          	and    $0xfffffffffffffff0,%rax
    50f4:	48 89 44 24 78       	mov    %rax,0x78(%rsp)
    50f9:	4c 89 30             	mov    %r14,(%rax)
    50fc:	bf 28 00 00 00       	mov    $0x28,%edi
    5101:	e8 ca cf ff ff       	call   20d0 <malloc@plt>
    5106:	48 8d 48 0f          	lea    0xf(%rax),%rcx
    510a:	48 83 e1 f0          	and    $0xfffffffffffffff0,%rcx
    510e:	4c 89 31             	mov    %r14,(%rcx)
    5111:	48 c7 41 08 20 00 00 	movq   $0x20,0x8(%rcx)
    5118:	00 
    5119:	48 c7 41 10 ff ff ff 	movq   $0xffffffffffffffff,0x10(%rcx)
    5120:	ff 
    5121:	48 89 c7             	mov    %rax,%rdi
    5124:	e8 e7 cf ff ff       	call   2110 <free@plt>
    5129:	48 89 e9             	mov    %rbp,%rcx
    512c:	48 c1 e1 05          	shl    $0x5,%rcx
    5130:	48 8b 5c 24 60       	mov    0x60(%rsp),%rbx
    5135:	48 89 d8             	mov    %rbx,%rax
    5138:	48 0f af c1          	imul   %rcx,%rax
    513c:	49 89 cf             	mov    %rcx,%r15
    513f:	48 89 4c 24 30       	mov    %rcx,0x30(%rsp)
    5144:	48 8d 3c 85 10 00 00 	lea    0x10(,%rax,4),%rdi
    514b:	00 
    514c:	48 89 7c 24 20       	mov    %rdi,0x20(%rsp)
    5151:	e8 7a cf ff ff       	call   20d0 <malloc@plt>
    5156:	49 89 c4             	mov    %rax,%r12
    5159:	4c 8d 68 0f          	lea    0xf(%rax),%r13
    515d:	49 83 e5 f0          	and    $0xfffffffffffffff0,%r13
    5161:	bf 03 00 00 00       	mov    $0x3,%edi
    5166:	e8 35 d0 ff ff       	call   21a0 <omTensorCreateUntyped@plt>
    516b:	49 89 c6             	mov    %rax,%r14
    516e:	48 89 c7             	mov    %rax,%rdi
    5171:	31 f6                	xor    %esi,%esi
    5173:	4c 89 64 24 70       	mov    %r12,0x70(%rsp)
    5178:	4c 89 e2             	mov    %r12,%rdx
    517b:	4c 89 6c 24 08       	mov    %r13,0x8(%rsp)
    5180:	4c 89 e9             	mov    %r13,%rcx
    5183:	e8 68 cf ff ff       	call   20f0 <omTensorSetDataPtr@plt>
    5188:	be 01 00 00 00       	mov    $0x1,%esi
    518d:	4c 89 f7             	mov    %r14,%rdi
    5190:	e8 0b cf ff ff       	call   20a0 <omTensorSetDataType@plt>
    5195:	4c 89 f7             	mov    %r14,%rdi
    5198:	e8 33 d0 ff ff       	call   21d0 <omTensorGetShape@plt>
    519d:	49 89 c4             	mov    %rax,%r12
    51a0:	4c 89 f7             	mov    %r14,%rdi
    51a3:	e8 c8 ce ff ff       	call   2070 <omTensorGetStrides@plt>
    51a8:	49 89 1c 24          	mov    %rbx,(%r12)
    51ac:	4c 89 38             	mov    %r15,(%rax)
    51af:	49 c7 44 24 08 20 00 	movq   $0x20,0x8(%r12)
    51b6:	00 00 
    51b8:	48 89 68 08          	mov    %rbp,0x8(%rax)
    51bc:	49 89 6c 24 10       	mov    %rbp,0x10(%r12)
    51c1:	48 c7 40 10 01 00 00 	movq   $0x1,0x10(%rax)
    51c8:	00 
    51c9:	bf 02 00 00 00       	mov    $0x2,%edi
    51ce:	e8 cd cf ff ff       	call   21a0 <omTensorCreateUntyped@plt>
    51d3:	49 89 c5             	mov    %rax,%r13
    51d6:	48 8d 0d 33 55 0d 00 	lea    0xd5533(%rip),%rcx        # da710 <constant_13_mobilenet>
    51dd:	48 89 c7             	mov    %rax,%rdi
    51e0:	31 f6                	xor    %esi,%esi
    51e2:	48 89 ca             	mov    %rcx,%rdx
    51e5:	e8 06 cf ff ff       	call   20f0 <omTensorSetDataPtr@plt>
    51ea:	be 01 00 00 00       	mov    $0x1,%esi
    51ef:	4c 89 ef             	mov    %r13,%rdi
    51f2:	e8 a9 ce ff ff       	call   20a0 <omTensorSetDataType@plt>
    51f7:	4c 89 ef             	mov    %r13,%rdi
    51fa:	e8 d1 cf ff ff       	call   21d0 <omTensorGetShape@plt>
    51ff:	49 89 c4             	mov    %rax,%r12
    5202:	4c 89 ef             	mov    %r13,%rdi
    5205:	e8 66 ce ff ff       	call   2070 <omTensorGetStrides@plt>
    520a:	49 c7 04 24 20 00 00 	movq   $0x20,(%r12)
    5211:	00 
    5212:	48 c7 00 20 00 00 00 	movq   $0x20,(%rax)
    5219:	49 c7 44 24 08 20 00 	movq   $0x20,0x8(%r12)
    5220:	00 00 
    5222:	48 c7 40 08 01 00 00 	movq   $0x1,0x8(%rax)
    5229:	00 
    522a:	bf 03 00 00 00       	mov    $0x3,%edi
    522f:	e8 6c cf ff ff       	call   21a0 <omTensorCreateUntyped@plt>
    5234:	49 89 c4             	mov    %rax,%r12
    5237:	48 89 c7             	mov    %rax,%rdi
    523a:	31 f6                	xor    %esi,%esi
    523c:	48 8b 54 24 10       	mov    0x10(%rsp),%rdx
    5241:	48 8b 0c 24          	mov    (%rsp),%rcx
    5245:	e8 a6 ce ff ff       	call   20f0 <omTensorSetDataPtr@plt>
    524a:	be 01 00 00 00       	mov    $0x1,%esi
    524f:	4c 89 e7             	mov    %r12,%rdi
    5252:	e8 49 ce ff ff       	call   20a0 <omTensorSetDataType@plt>
    5257:	4c 89 e7             	mov    %r12,%rdi
    525a:	e8 71 cf ff ff       	call   21d0 <omTensorGetShape@plt>
    525f:	49 89 c7             	mov    %rax,%r15
    5262:	4c 89 e7             	mov    %r12,%rdi
    5265:	e8 06 ce ff ff       	call   2070 <omTensorGetStrides@plt>
    526a:	49 89 1f             	mov    %rbx,(%r15)
    526d:	48 8b 4c 24 30       	mov    0x30(%rsp),%rcx
    5272:	48 89 08             	mov    %rcx,(%rax)
    5275:	49 c7 47 08 20 00 00 	movq   $0x20,0x8(%r15)
    527c:	00 
    527d:	48 89 68 08          	mov    %rbp,0x8(%rax)
    5281:	49 89 6f 10          	mov    %rbp,0x10(%r15)
    5285:	48 c7 40 10 01 00 00 	movq   $0x1,0x10(%rax)
    528c:	00 
    528d:	4c 89 f7             	mov    %r14,%rdi
    5290:	4c 89 ee             	mov    %r13,%rsi
    5293:	4c 89 e2             	mov    %r12,%rdx
    5296:	e8 b5 cd ff ff       	call   2050 <MatMul@plt>
    529b:	4c 89 f7             	mov    %r14,%rdi
    529e:	e8 0d cf ff ff       	call   21b0 <omTensorDestroy@plt>
    52a3:	4c 89 ef             	mov    %r13,%rdi
    52a6:	e8 05 cf ff ff       	call   21b0 <omTensorDestroy@plt>
    52ab:	4c 89 e7             	mov    %r12,%rdi
    52ae:	e8 fd ce ff ff       	call   21b0 <omTensorDestroy@plt>
    52b3:	48 8b 7c 24 10       	mov    0x10(%rsp),%rdi
    52b8:	e8 53 ce ff ff       	call   2110 <free@plt>
    52bd:	48 8b 7c 24 20       	mov    0x20(%rsp),%rdi
    52c2:	e8 09 ce ff ff       	call   20d0 <malloc@plt>
    52c7:	48 89 44 24 50       	mov    %rax,0x50(%rsp)
    52cc:	48 83 c0 0f          	add    $0xf,%rax
    52d0:	48 83 e0 f0          	and    $0xfffffffffffffff0,%rax
    52d4:	48 89 44 24 40       	mov    %rax,0x40(%rsp)
    52d9:	48 85 db             	test   %rbx,%rbx
    52dc:	0f 8e 5b 01 00 00    	jle    543d <main_graph_mobilenet+0x316d>
    52e2:	48 89 e8             	mov    %rbp,%rax
    52e5:	48 c1 e0 07          	shl    $0x7,%rax
    52e9:	48 89 44 24 10       	mov    %rax,0x10(%rsp)
    52ee:	48 8d 0c ad 00 00 00 	lea    0x0(,%rbp,4),%rcx
    52f5:	00 
    52f6:	48 89 eb             	mov    %rbp,%rbx
    52f9:	48 83 e3 f8          	and    $0xfffffffffffffff8,%rbx
    52fd:	4c 8b 6c 24 40       	mov    0x40(%rsp),%r13
    5302:	49 8d 45 10          	lea    0x10(%r13),%rax
    5306:	48 89 04 24          	mov    %rax,(%rsp)
    530a:	48 8b 44 24 08       	mov    0x8(%rsp),%rax
    530f:	48 8d 50 10          	lea    0x10(%rax),%rdx
    5313:	48 89 54 24 20       	mov    %rdx,0x20(%rsp)
    5318:	45 31 c0             	xor    %r8d,%r8d
    531b:	4c 8d 0d ee 72 01 00 	lea    0x172ee(%rip),%r9        # 1c610 <constant_26_mobilenet>
    5322:	48 89 44 24 30       	mov    %rax,0x30(%rsp)
    5327:	eb 2b                	jmp    5354 <main_graph_mobilenet+0x3084>
    5329:	0f 1f 80 00 00 00 00 	nopl   0x0(%rax)
    5330:	49 ff c0             	inc    %r8
    5333:	48 8b 44 24 10       	mov    0x10(%rsp),%rax
    5338:	48 01 04 24          	add    %rax,(%rsp)
    533c:	48 01 44 24 20       	add    %rax,0x20(%rsp)
    5341:	49 01 c5             	add    %rax,%r13
    5344:	48 01 44 24 30       	add    %rax,0x30(%rsp)
    5349:	4c 3b 44 24 60       	cmp    0x60(%rsp),%r8
    534e:	0f 84 e9 00 00 00    	je     543d <main_graph_mobilenet+0x316d>
    5354:	48 85 ed             	test   %rbp,%rbp
    5357:	7e d7                	jle    5330 <main_graph_mobilenet+0x3060>
    5359:	4c 8b 74 24 10       	mov    0x10(%rsp),%r14
    535e:	4d 0f af f0          	imul   %r8,%r14
    5362:	48 8b 44 24 40       	mov    0x40(%rsp),%rax
    5367:	4e 8d 3c 30          	lea    (%rax,%r14,1),%r15
    536b:	4c 03 74 24 08       	add    0x8(%rsp),%r14
    5370:	4c 8b 64 24 30       	mov    0x30(%rsp),%r12
    5375:	4d 89 eb             	mov    %r13,%r11
    5378:	48 8b 7c 24 20       	mov    0x20(%rsp),%rdi
    537d:	48 8b 34 24          	mov    (%rsp),%rsi
    5381:	31 c0                	xor    %eax,%eax
    5383:	eb 20                	jmp    53a5 <main_graph_mobilenet+0x30d5>
    5385:	66 2e 0f 1f 84 00 00 	cs nopw 0x0(%rax,%rax,1)
    538c:	00 00 00 
    538f:	90                   	nop
    5390:	48 ff c0             	inc    %rax
    5393:	48 01 ce             	add    %rcx,%rsi
    5396:	48 01 cf             	add    %rcx,%rdi
    5399:	49 01 cb             	add    %rcx,%r11
    539c:	49 01 cc             	add    %rcx,%r12
    539f:	48 83 f8 20          	cmp    $0x20,%rax
    53a3:	74 8b                	je     5330 <main_graph_mobilenet+0x3060>
    53a5:	48 83 fd 08          	cmp    $0x8,%rbp
    53a9:	f3 41 0f 10 04 81    	movss  (%r9,%rax,4),%xmm0
    53af:	73 0f                	jae    53c0 <main_graph_mobilenet+0x30f0>
    53b1:	31 d2                	xor    %edx,%edx
    53b3:	eb 6b                	jmp    5420 <main_graph_mobilenet+0x3150>
    53b5:	66 2e 0f 1f 84 00 00 	cs nopw 0x0(%rax,%rax,1)
    53bc:	00 00 00 
    53bf:	90                   	nop
    53c0:	48 89 ca             	mov    %rcx,%rdx
    53c3:	48 0f af d0          	imul   %rax,%rdx
    53c7:	4d 8d 14 16          	lea    (%r14,%rdx,1),%r10
    53cb:	4c 01 fa             	add    %r15,%rdx
    53ce:	4c 29 d2             	sub    %r10,%rdx
    53d1:	48 83 fa 20          	cmp    $0x20,%rdx
    53d5:	73 09                	jae    53e0 <main_graph_mobilenet+0x3110>
    53d7:	31 d2                	xor    %edx,%edx
    53d9:	eb 45                	jmp    5420 <main_graph_mobilenet+0x3150>
    53db:	0f 1f 44 00 00       	nopl   0x0(%rax,%rax,1)
    53e0:	0f 28 c8             	movaps %xmm0,%xmm1
    53e3:	0f c6 c8 00          	shufps $0x0,%xmm0,%xmm1
    53e7:	31 d2                	xor    %edx,%edx
    53e9:	0f 1f 80 00 00 00 00 	nopl   0x0(%rax)
    53f0:	0f 10 54 97 f0       	movups -0x10(%rdi,%rdx,4),%xmm2
    53f5:	0f 10 1c 97          	movups (%rdi,%rdx,4),%xmm3
    53f9:	0f 58 d1             	addps  %xmm1,%xmm2
    53fc:	0f 58 d9             	addps  %xmm1,%xmm3
    53ff:	0f 11 54 96 f0       	movups %xmm2,-0x10(%rsi,%rdx,4)
    5404:	0f 11 1c 96          	movups %xmm3,(%rsi,%rdx,4)
    5408:	48 83 c2 08          	add    $0x8,%rdx
    540c:	48 39 d3             	cmp    %rdx,%rbx
    540f:	75 df                	jne    53f0 <main_graph_mobilenet+0x3120>
    5411:	48 39 dd             	cmp    %rbx,%rbp
    5414:	48 89 da             	mov    %rbx,%rdx
    5417:	0f 84 73 ff ff ff    	je     5390 <main_graph_mobilenet+0x30c0>
    541d:	0f 1f 00             	nopl   (%rax)
    5420:	f3 41 0f 10 0c 94    	movss  (%r12,%rdx,4),%xmm1
    5426:	f3 0f 58 c8          	addss  %xmm0,%xmm1
    542a:	f3 41 0f 11 0c 93    	movss  %xmm1,(%r11,%rdx,4)
    5430:	48 ff c2             	inc    %rdx
    5433:	48 39 d5             	cmp    %rdx,%rbp
    5436:	75 e8                	jne    5420 <main_graph_mobilenet+0x3150>
    5438:	e9 53 ff ff ff       	jmp    5390 <main_graph_mobilenet+0x30c0>
    543d:	48 8b 7c 24 70       	mov    0x70(%rsp),%rdi
    5442:	e8 c9 cc ff ff       	call   2110 <free@plt>
    5447:	bf 30 00 00 00       	mov    $0x30,%edi
    544c:	e8 7f cc ff ff       	call   20d0 <malloc@plt>
    5451:	49 89 c4             	mov    %rax,%r12
    5454:	4c 8d 78 0f          	lea    0xf(%rax),%r15
    5458:	49 83 e7 f0          	and    $0xfffffffffffffff0,%r15
    545c:	48 8b 44 24 78       	mov    0x78(%rsp),%rax
    5461:	48 8b 00             	mov    (%rax),%rax
    5464:	49 89 07             	mov    %rax,(%r15)
    5467:	48 8b 7c 24 58       	mov    0x58(%rsp),%rdi
    546c:	e8 9f cc ff ff       	call   2110 <free@plt>
    5471:	48 8b 44 24 60       	mov    0x60(%rsp),%rax
    5476:	48 0f af e8          	imul   %rax,%rbp
    547a:	48 c1 e5 05          	shl    $0x5,%rbp
    547e:	49 8b 0f             	mov    (%r15),%rcx
    5481:	48 85 c9             	test   %rcx,%rcx
    5484:	48 0f 44 c8          	cmove  %rax,%rcx
    5488:	48 89 c8             	mov    %rcx,%rax
    548b:	48 c1 e0 0b          	shl    $0xb,%rax
    548f:	48 83 f9 ff          	cmp    $0xffffffffffffffff,%rcx
    5493:	48 8d 34 c0          	lea    (%rax,%rax,8),%rsi
    5497:	b8 00 48 00 00       	mov    $0x4800,%eax
    549c:	48 0f 44 f0          	cmove  %rax,%rsi
    54a0:	48 89 f0             	mov    %rsi,%rax
    54a3:	48 f7 d0             	not    %rax
    54a6:	48 c1 f8 3f          	sar    $0x3f,%rax
    54aa:	48 83 c8 01          	or     $0x1,%rax
    54ae:	48 29 e8             	sub    %rbp,%rax
    54b1:	48 99                	cqto   
    54b3:	48 f7 fe             	idiv   %rsi
    54b6:	49 89 c6             	mov    %rax,%r14
    54b9:	49 f7 d6             	not    %r14
    54bc:	48 89 e8             	mov    %rbp,%rax
    54bf:	48 99                	cqto   
    54c1:	48 f7 fe             	idiv   %rsi
    54c4:	48 85 f6             	test   %rsi,%rsi
    54c7:	48 89 c2             	mov    %rax,%rdx
    54ca:	49 0f 48 d6          	cmovs  %r14,%rdx
    54ce:	48 85 ed             	test   %rbp,%rbp
    54d1:	48 0f 4e d0          	cmovle %rax,%rdx
    54d5:	48 85 f6             	test   %rsi,%rsi
    54d8:	4c 0f 4e f2          	cmovle %rdx,%r14
    54dc:	48 85 ed             	test   %rbp,%rbp
    54df:	4c 0f 49 f2          	cmovns %rdx,%r14
    54e3:	48 83 f9 ff          	cmp    $0xffffffffffffffff,%rcx
    54e7:	4c 0f 45 f1          	cmovne %rcx,%r14
    54eb:	4c 89 f0             	mov    %r14,%rax
    54ee:	48 c1 e0 09          	shl    $0x9,%rax
    54f2:	48 8d 0c c0          	lea    (%rax,%rax,8),%rcx
    54f6:	4c 89 f6             	mov    %r14,%rsi
    54f9:	48 c1 e6 05          	shl    $0x5,%rsi
    54fd:	49 83 fe ff          	cmp    $0xffffffffffffffff,%r14
    5501:	b8 20 00 00 00       	mov    $0x20,%eax
    5506:	48 0f 44 f0          	cmove  %rax,%rsi
    550a:	48 89 f0             	mov    %rsi,%rax
    550d:	48 f7 d0             	not    %rax
    5510:	48 c1 f8 3f          	sar    $0x3f,%rax
    5514:	48 83 c8 01          	or     $0x1,%rax
    5518:	48 29 c8             	sub    %rcx,%rax
    551b:	48 99                	cqto   
    551d:	48 f7 fe             	idiv   %rsi
    5520:	49 89 c5             	mov    %rax,%r13
    5523:	49 f7 d5             	not    %r13
    5526:	48 89 c8             	mov    %rcx,%rax
    5529:	48 99                	cqto   
    552b:	48 f7 fe             	idiv   %rsi
    552e:	48 85 f6             	test   %rsi,%rsi
    5531:	48 89 c2             	mov    %rax,%rdx
    5534:	49 0f 48 d5          	cmovs  %r13,%rdx
    5538:	48 85 c9             	test   %rcx,%rcx
    553b:	48 0f 4e d0          	cmovle %rax,%rdx
    553f:	48 85 f6             	test   %rsi,%rsi
    5542:	4c 0f 4e ea          	cmovle %rdx,%r13
    5546:	48 85 c9             	test   %rcx,%rcx
    5549:	4c 0f 49 ea          	cmovns %rdx,%r13
    554d:	49 83 fe ff          	cmp    $0xffffffffffffffff,%r14
    5551:	49 c7 47 08 20 00 00 	movq   $0x20,0x8(%r15)
    5558:	00 
    5559:	49 c7 47 10 18 00 00 	movq   $0x18,0x10(%r15)
    5560:	00 
    5561:	49 c7 47 18 18 00 00 	movq   $0x18,0x18(%r15)
    5568:	00 
    5569:	4c 89 f0             	mov    %r14,%rax
    556c:	49 0f 44 c5          	cmove  %r13,%rax
    5570:	48 89 44 24 60       	mov    %rax,0x60(%rsp)
    5575:	4c 89 e7             	mov    %r12,%rdi
    5578:	e8 93 cb ff ff       	call   2110 <free@plt>
    557d:	4c 89 f0             	mov    %r14,%rax
    5580:	48 c1 e0 0d          	shl    $0xd,%rax
    5584:	48 8d 7c c0 10       	lea    0x10(%rax,%rax,8),%rdi
    5589:	e8 42 cb ff ff       	call   20d0 <malloc@plt>
    558e:	48 89 c3             	mov    %rax,%rbx
    5591:	4c 8d 78 0f          	lea    0xf(%rax),%r15
    5595:	48 89 44 24 10       	mov    %rax,0x10(%rsp)
    559a:	49 83 e7 f0          	and    $0xfffffffffffffff0,%r15
    559e:	4c 89 7c 24 08       	mov    %r15,0x8(%rsp)
    55a3:	bf 04 00 00 00       	mov    $0x4,%edi
    55a8:	e8 f3 cb ff ff       	call   21a0 <omTensorCreateUntyped@plt>
    55ad:	48 89 c5             	mov    %rax,%rbp
    55b0:	48 89 c7             	mov    %rax,%rdi
    55b3:	31 f6                	xor    %esi,%esi
    55b5:	48 89 da             	mov    %rbx,%rdx
    55b8:	4c 89 f9             	mov    %r15,%rcx
    55bb:	e8 30 cb ff ff       	call   20f0 <omTensorSetDataPtr@plt>
    55c0:	be 01 00 00 00       	mov    $0x1,%esi
    55c5:	48 89 ef             	mov    %rbp,%rdi
    55c8:	e8 d3 ca ff ff       	call   20a0 <omTensorSetDataType@plt>
    55cd:	48 89 ef             	mov    %rbp,%rdi
    55d0:	e8 fb cb ff ff       	call   21d0 <omTensorGetShape@plt>
    55d5:	49 89 c7             	mov    %rax,%r15
    55d8:	48 89 ef             	mov    %rbp,%rdi
    55db:	e8 90 ca ff ff       	call   2070 <omTensorGetStrides@plt>
    55e0:	4d 89 37             	mov    %r14,(%r15)
    55e3:	48 c7 00 00 48 00 00 	movq   $0x4800,(%rax)
    55ea:	49 c7 47 08 20 00 00 	movq   $0x20,0x8(%r15)
    55f1:	00 
    55f2:	48 c7 40 08 40 02 00 	movq   $0x240,0x8(%rax)
    55f9:	00 
    55fa:	49 c7 47 10 18 00 00 	movq   $0x18,0x10(%r15)
    5601:	00 
    5602:	48 c7 40 10 18 00 00 	movq   $0x18,0x10(%rax)
    5609:	00 
    560a:	49 c7 47 18 18 00 00 	movq   $0x18,0x18(%r15)
    5611:	00 
    5612:	48 c7 40 18 01 00 00 	movq   $0x1,0x18(%rax)
    5619:	00 
    561a:	bf 04 00 00 00       	mov    $0x4,%edi
    561f:	e8 7c cb ff ff       	call   21a0 <omTensorCreateUntyped@plt>
    5624:	49 89 c7             	mov    %rax,%r15
    5627:	48 89 c7             	mov    %rax,%rdi
    562a:	31 f6                	xor    %esi,%esi
    562c:	4c 8b 64 24 50       	mov    0x50(%rsp),%r12
    5631:	4c 89 e2             	mov    %r12,%rdx
    5634:	48 8b 4c 24 40       	mov    0x40(%rsp),%rcx
    5639:	e8 b2 ca ff ff       	call   20f0 <omTensorSetDataPtr@plt>
    563e:	be 01 00 00 00       	mov    $0x1,%esi
    5643:	4c 89 ff             	mov    %r15,%rdi
    5646:	e8 55 ca ff ff       	call   20a0 <omTensorSetDataType@plt>
    564b:	4c 89 ff             	mov    %r15,%rdi
    564e:	e8 7d cb ff ff       	call   21d0 <omTensorGetShape@plt>
    5653:	48 89 c3             	mov    %rax,%rbx
    5656:	4c 89 ff             	mov    %r15,%rdi
    5659:	e8 12 ca ff ff       	call   2070 <omTensorGetStrides@plt>
    565e:	4c 89 33             	mov    %r14,(%rbx)
    5661:	48 c7 00 00 48 00 00 	movq   $0x4800,(%rax)
    5668:	48 c7 43 08 20 00 00 	movq   $0x20,0x8(%rbx)
    566f:	00 
    5670:	48 c7 40 08 40 02 00 	movq   $0x240,0x8(%rax)
    5677:	00 
    5678:	48 c7 43 10 18 00 00 	movq   $0x18,0x10(%rbx)
    567f:	00 
    5680:	48 c7 40 10 18 00 00 	movq   $0x18,0x10(%rax)
    5687:	00 
    5688:	48 c7 43 18 18 00 00 	movq   $0x18,0x18(%rbx)
    568f:	00 
    5690:	48 c7 40 18 01 00 00 	movq   $0x1,0x18(%rax)
    5697:	00 
    5698:	48 89 ef             	mov    %rbp,%rdi
    569b:	4c 89 fe             	mov    %r15,%rsi
    569e:	e8 4d cb ff ff       	call   21f0 <Relu@plt>
    56a3:	48 89 ef             	mov    %rbp,%rdi
    56a6:	e8 05 cb ff ff       	call   21b0 <omTensorDestroy@plt>
    56ab:	4c 89 ff             	mov    %r15,%rdi
    56ae:	e8 fd ca ff ff       	call   21b0 <omTensorDestroy@plt>
    56b3:	4c 89 e7             	mov    %r12,%rdi
    56b6:	e8 55 ca ff ff       	call   2110 <free@plt>
    56bb:	4c 89 f0             	mov    %r14,%rax
    56be:	48 c1 e0 0b          	shl    $0xb,%rax
    56c2:	48 8d 7c c0 10       	lea    0x10(%rax,%rax,8),%rdi
    56c7:	48 89 7c 24 30       	mov    %rdi,0x30(%rsp)
    56cc:	e8 ff c9 ff ff       	call   20d0 <malloc@plt>
    56d1:	48 89 c3             	mov    %rax,%rbx
    56d4:	4c 8d 78 0f          	lea    0xf(%rax),%r15
    56d8:	48 89 44 24 20       	mov    %rax,0x20(%rsp)
    56dd:	49 83 e7 f0          	and    $0xfffffffffffffff0,%r15
    56e1:	4c 89 3c 24          	mov    %r15,(%rsp)
    56e5:	bf 04 00 00 00       	mov    $0x4,%edi
    56ea:	e8 b1 ca ff ff       	call   21a0 <omTensorCreateUntyped@plt>
    56ef:	49 89 c4             	mov    %rax,%r12
    56f2:	48 89 44 24 40       	mov    %rax,0x40(%rsp)
    56f7:	48 89 c7             	mov    %rax,%rdi
    56fa:	31 f6                	xor    %esi,%esi
    56fc:	48 89 da             	mov    %rbx,%rdx
    56ff:	4c 89 f9             	mov    %r15,%rcx
    5702:	e8 e9 c9 ff ff       	call   20f0 <omTensorSetDataPtr@plt>
    5707:	be 01 00 00 00       	mov    $0x1,%esi
    570c:	4c 89 e7             	mov    %r12,%rdi
    570f:	e8 8c c9 ff ff       	call   20a0 <omTensorSetDataType@plt>
    5714:	4c 89 e7             	mov    %r12,%rdi
    5717:	e8 b4 ca ff ff       	call   21d0 <omTensorGetShape@plt>
    571c:	49 89 c7             	mov    %rax,%r15
    571f:	4c 89 e7             	mov    %r12,%rdi
    5722:	e8 49 c9 ff ff       	call   2070 <omTensorGetStrides@plt>
    5727:	4d 89 37             	mov    %r14,(%r15)
    572a:	48 c7 00 00 12 00 00 	movq   $0x1200,(%rax)
    5731:	49 c7 47 08 20 00 00 	movq   $0x20,0x8(%r15)
    5738:	00 
    5739:	48 c7 40 08 90 00 00 	movq   $0x90,0x8(%rax)
    5740:	00 
    5741:	49 c7 47 10 0c 00 00 	movq   $0xc,0x10(%r15)
    5748:	00 
    5749:	48 c7 40 10 0c 00 00 	movq   $0xc,0x10(%rax)
    5750:	00 
    5751:	49 c7 47 18 0c 00 00 	movq   $0xc,0x18(%r15)
    5758:	00 
    5759:	48 c7 40 18 01 00 00 	movq   $0x1,0x18(%rax)
    5760:	00 
    5761:	bf 04 00 00 00       	mov    $0x4,%edi
    5766:	e8 35 ca ff ff       	call   21a0 <omTensorCreateUntyped@plt>
    576b:	49 89 c7             	mov    %rax,%r15
    576e:	48 89 c7             	mov    %rax,%rdi
    5771:	31 f6                	xor    %esi,%esi
    5773:	48 8b 54 24 10       	mov    0x10(%rsp),%rdx
    5778:	48 8b 4c 24 08       	mov    0x8(%rsp),%rcx
    577d:	e8 6e c9 ff ff       	call   20f0 <omTensorSetDataPtr@plt>
    5782:	be 01 00 00 00       	mov    $0x1,%esi
    5787:	4c 89 ff             	mov    %r15,%rdi
    578a:	e8 11 c9 ff ff       	call   20a0 <omTensorSetDataType@plt>
    578f:	4c 89 ff             	mov    %r15,%rdi
    5792:	e8 39 ca ff ff       	call   21d0 <omTensorGetShape@plt>
    5797:	49 89 c4             	mov    %rax,%r12
    579a:	4c 89 ff             	mov    %r15,%rdi
    579d:	e8 ce c8 ff ff       	call   2070 <omTensorGetStrides@plt>
    57a2:	4d 89 34 24          	mov    %r14,(%r12)
    57a6:	48 c7 00 00 48 00 00 	movq   $0x4800,(%rax)
    57ad:	49 c7 44 24 08 20 00 	movq   $0x20,0x8(%r12)
    57b4:	00 00 
    57b6:	48 c7 40 08 40 02 00 	movq   $0x240,0x8(%rax)
    57bd:	00 
    57be:	49 c7 44 24 10 18 00 	movq   $0x18,0x10(%r12)
    57c5:	00 00 
    57c7:	48 c7 40 10 18 00 00 	movq   $0x18,0x10(%rax)
    57ce:	00 
    57cf:	49 c7 44 24 18 18 00 	movq   $0x18,0x18(%r12)
    57d6:	00 00 
    57d8:	48 c7 40 18 01 00 00 	movq   $0x1,0x18(%rax)
    57df:	00 
    57e0:	48 8d 2d c9 3c 01 00 	lea    0x13cc9(%rip),%rbp        # 194b0 <constant_55_mobilenet>
    57e7:	bf 04 00 00 00       	mov    $0x4,%edi
    57ec:	e8 af c9 ff ff       	call   21a0 <omTensorCreateUntyped@plt>
    57f1:	49 89 c4             	mov    %rax,%r12
    57f4:	48 89 c7             	mov    %rax,%rdi
    57f7:	31 f6                	xor    %esi,%esi
    57f9:	48 89 ea             	mov    %rbp,%rdx
    57fc:	48 89 e9             	mov    %rbp,%rcx
    57ff:	e8 ec c8 ff ff       	call   20f0 <omTensorSetDataPtr@plt>
    5804:	be 01 00 00 00       	mov    $0x1,%esi
    5809:	4c 89 e7             	mov    %r12,%rdi
    580c:	e8 8f c8 ff ff       	call   20a0 <omTensorSetDataType@plt>
    5811:	4c 89 e7             	mov    %r12,%rdi
    5814:	e8 b7 c9 ff ff       	call   21d0 <omTensorGetShape@plt>
    5819:	48 89 c5             	mov    %rax,%rbp
    581c:	4c 89 e7             	mov    %r12,%rdi
    581f:	e8 4c c8 ff ff       	call   2070 <omTensorGetStrides@plt>
    5824:	48 c7 45 00 20 00 00 	movq   $0x20,0x0(%rbp)
    582b:	00 
    582c:	48 c7 00 09 00 00 00 	movq   $0x9,(%rax)
    5833:	48 c7 45 08 01 00 00 	movq   $0x1,0x8(%rbp)
    583a:	00 
    583b:	48 c7 40 08 09 00 00 	movq   $0x9,0x8(%rax)
    5842:	00 
    5843:	48 c7 45 10 03 00 00 	movq   $0x3,0x10(%rbp)
    584a:	00 
    584b:	48 c7 40 10 03 00 00 	movq   $0x3,0x10(%rax)
    5852:	00 
    5853:	48 c7 45 18 03 00 00 	movq   $0x3,0x18(%rbp)
    585a:	00 
    585b:	48 c7 40 18 01 00 00 	movq   $0x1,0x18(%rax)
    5862:	00 
    5863:	48 8d 1d 26 56 01 00 	lea    0x15626(%rip),%rbx        # 1ae90 <constant_40_mobilenet>
    586a:	bf 01 00 00 00       	mov    $0x1,%edi
    586f:	e8 2c c9 ff ff       	call   21a0 <omTensorCreateUntyped@plt>
    5874:	48 89 c5             	mov    %rax,%rbp
    5877:	48 89 c7             	mov    %rax,%rdi
    587a:	31 f6                	xor    %esi,%esi
    587c:	48 89 da             	mov    %rbx,%rdx
    587f:	48 89 d9             	mov    %rbx,%rcx
    5882:	e8 69 c8 ff ff       	call   20f0 <omTensorSetDataPtr@plt>
    5887:	be 01 00 00 00       	mov    $0x1,%esi
    588c:	48 89 ef             	mov    %rbp,%rdi
    588f:	e8 0c c8 ff ff       	call   20a0 <omTensorSetDataType@plt>
    5894:	48 89 ef             	mov    %rbp,%rdi
    5897:	e8 34 c9 ff ff       	call   21d0 <omTensorGetShape@plt>
    589c:	48 89 c3             	mov    %rax,%rbx
    589f:	48 89 ef             	mov    %rbp,%rdi
    58a2:	e8 c9 c7 ff ff       	call   2070 <omTensorGetStrides@plt>
    58a7:	48 c7 03 20 00 00 00 	movq   $0x20,(%rbx)
    58ae:	48 c7 00 01 00 00 00 	movq   $0x1,(%rax)
    58b5:	48 8b 5c 24 40       	mov    0x40(%rsp),%rbx
    58ba:	48 89 df             	mov    %rbx,%rdi
    58bd:	4c 89 fe             	mov    %r15,%rsi
    58c0:	4c 89 e2             	mov    %r12,%rdx
    58c3:	48 89 e9             	mov    %rbp,%rcx
    58c6:	45 31 c0             	xor    %r8d,%r8d
    58c9:	45 31 c9             	xor    %r9d,%r9d
    58cc:	6a 02                	push   $0x2
    58ce:	6a 02                	push   $0x2
    58d0:	6a 01                	push   $0x1
    58d2:	6a 01                	push   $0x1
    58d4:	e8 87 c8 ff ff       	call   2160 <Conv2D_bias@plt>
    58d9:	48 83 c4 20          	add    $0x20,%rsp
    58dd:	48 89 df             	mov    %rbx,%rdi
    58e0:	e8 cb c8 ff ff       	call   21b0 <omTensorDestroy@plt>
    58e5:	4c 89 ff             	mov    %r15,%rdi
    58e8:	e8 c3 c8 ff ff       	call   21b0 <omTensorDestroy@plt>
    58ed:	4c 89 e7             	mov    %r12,%rdi
    58f0:	e8 bb c8 ff ff       	call   21b0 <omTensorDestroy@plt>
    58f5:	48 89 ef             	mov    %rbp,%rdi
    58f8:	e8 b3 c8 ff ff       	call   21b0 <omTensorDestroy@plt>
    58fd:	48 8b 7c 24 10       	mov    0x10(%rsp),%rdi
    5902:	e8 09 c8 ff ff       	call   2110 <free@plt>
    5907:	48 8b 7c 24 30       	mov    0x30(%rsp),%rdi
    590c:	e8 bf c7 ff ff       	call   20d0 <malloc@plt>
    5911:	48 89 c3             	mov    %rax,%rbx
    5914:	4c 8d 60 0f          	lea    0xf(%rax),%r12
    5918:	48 89 44 24 10       	mov    %rax,0x10(%rsp)
    591d:	49 83 e4 f0          	and    $0xfffffffffffffff0,%r12
    5921:	4c 89 64 24 30       	mov    %r12,0x30(%rsp)
    5926:	bf 04 00 00 00       	mov    $0x4,%edi
    592b:	e8 70 c8 ff ff       	call   21a0 <omTensorCreateUntyped@plt>
    5930:	49 89 c7             	mov    %rax,%r15
    5933:	48 89 c7             	mov    %rax,%rdi
    5936:	31 f6                	xor    %esi,%esi
    5938:	48 89 da             	mov    %rbx,%rdx
    593b:	4c 89 e1             	mov    %r12,%rcx
    593e:	e8 ad c7 ff ff       	call   20f0 <omTensorSetDataPtr@plt>
    5943:	be 01 00 00 00       	mov    $0x1,%esi
    5948:	4c 89 ff             	mov    %r15,%rdi
    594b:	e8 50 c7 ff ff       	call   20a0 <omTensorSetDataType@plt>
    5950:	4c 89 ff             	mov    %r15,%rdi
    5953:	e8 78 c8 ff ff       	call   21d0 <omTensorGetShape@plt>
    5958:	48 89 c3             	mov    %rax,%rbx
    595b:	4c 89 ff             	mov    %r15,%rdi
    595e:	e8 0d c7 ff ff       	call   2070 <omTensorGetStrides@plt>
    5963:	4c 89 33             	mov    %r14,(%rbx)
    5966:	48 c7 00 00 12 00 00 	movq   $0x1200,(%rax)
    596d:	48 c7 43 08 20 00 00 	movq   $0x20,0x8(%rbx)
    5974:	00 
    5975:	48 c7 40 08 90 00 00 	movq   $0x90,0x8(%rax)
    597c:	00 
    597d:	48 c7 43 10 0c 00 00 	movq   $0xc,0x10(%rbx)
    5984:	00 
    5985:	48 c7 40 10 0c 00 00 	movq   $0xc,0x10(%rax)
    598c:	00 
    598d:	48 c7 43 18 0c 00 00 	movq   $0xc,0x18(%rbx)
    5994:	00 
    5995:	48 c7 40 18 01 00 00 	movq   $0x1,0x18(%rax)
    599c:	00 
    599d:	bf 04 00 00 00       	mov    $0x4,%edi
    59a2:	e8 f9 c7 ff ff       	call   21a0 <omTensorCreateUntyped@plt>
    59a7:	48 89 c3             	mov    %rax,%rbx
    59aa:	48 89 c7             	mov    %rax,%rdi
    59ad:	31 f6                	xor    %esi,%esi
    59af:	4c 8b 64 24 20       	mov    0x20(%rsp),%r12
    59b4:	4c 89 e2             	mov    %r12,%rdx
    59b7:	48 8b 0c 24          	mov    (%rsp),%rcx
    59bb:	e8 30 c7 ff ff       	call   20f0 <omTensorSetDataPtr@plt>
    59c0:	be 01 00 00 00       	mov    $0x1,%esi
    59c5:	48 89 df             	mov    %rbx,%rdi
    59c8:	e8 d3 c6 ff ff       	call   20a0 <omTensorSetDataType@plt>
    59cd:	48 89 df             	mov    %rbx,%rdi
    59d0:	e8 fb c7 ff ff       	call   21d0 <omTensorGetShape@plt>
    59d5:	48 89 c5             	mov    %rax,%rbp
    59d8:	48 89 df             	mov    %rbx,%rdi
    59db:	e8 90 c6 ff ff       	call   2070 <omTensorGetStrides@plt>
    59e0:	4c 89 75 00          	mov    %r14,0x0(%rbp)
    59e4:	48 c7 00 00 12 00 00 	movq   $0x1200,(%rax)
    59eb:	48 c7 45 08 20 00 00 	movq   $0x20,0x8(%rbp)
    59f2:	00 
    59f3:	48 c7 40 08 90 00 00 	movq   $0x90,0x8(%rax)
    59fa:	00 
    59fb:	48 c7 45 10 0c 00 00 	movq   $0xc,0x10(%rbp)
    5a02:	00 
    5a03:	48 c7 40 10 0c 00 00 	movq   $0xc,0x10(%rax)
    5a0a:	00 
    5a0b:	48 c7 45 18 0c 00 00 	movq   $0xc,0x18(%rbp)
    5a12:	00 
    5a13:	48 c7 40 18 01 00 00 	movq   $0x1,0x18(%rax)
    5a1a:	00 
    5a1b:	4c 89 ff             	mov    %r15,%rdi
    5a1e:	48 89 de             	mov    %rbx,%rsi
    5a21:	e8 ca c7 ff ff       	call   21f0 <Relu@plt>
    5a26:	4c 89 ff             	mov    %r15,%rdi
    5a29:	e8 82 c7 ff ff       	call   21b0 <omTensorDestroy@plt>
    5a2e:	48 89 df             	mov    %rbx,%rdi
    5a31:	e8 7a c7 ff ff       	call   21b0 <omTensorDestroy@plt>
    5a36:	4c 89 e7             	mov    %r12,%rdi
    5a39:	e8 d2 c6 ff ff       	call   2110 <free@plt>
    5a3e:	bf 18 00 00 00       	mov    $0x18,%edi
    5a43:	e8 88 c6 ff ff       	call   20d0 <malloc@plt>
    5a48:	48 89 44 24 58       	mov    %rax,0x58(%rsp)
    5a4d:	48 83 c0 0f          	add    $0xf,%rax
    5a51:	48 83 e0 f0          	and    $0xfffffffffffffff0,%rax
    5a55:	48 89 44 24 78       	mov    %rax,0x78(%rsp)
    5a5a:	4c 89 30             	mov    %r14,(%rax)
    5a5d:	bf 28 00 00 00       	mov    $0x28,%edi
    5a62:	e8 69 c6 ff ff       	call   20d0 <malloc@plt>
    5a67:	48 8d 48 0f          	lea    0xf(%rax),%rcx
    5a6b:	48 83 e1 f0          	and    $0xfffffffffffffff0,%rcx
    5a6f:	4c 89 31             	mov    %r14,(%rcx)
    5a72:	48 c7 41 08 20 00 00 	movq   $0x20,0x8(%rcx)
    5a79:	00 
    5a7a:	48 c7 41 10 ff ff ff 	movq   $0xffffffffffffffff,0x10(%rcx)
    5a81:	ff 
    5a82:	48 89 c7             	mov    %rax,%rdi
    5a85:	e8 86 c6 ff ff       	call   2110 <free@plt>
    5a8a:	4c 89 e8             	mov    %r13,%rax
    5a8d:	48 c1 e0 05          	shl    $0x5,%rax
    5a91:	48 89 44 24 20       	mov    %rax,0x20(%rsp)
    5a96:	4c 89 eb             	mov    %r13,%rbx
    5a99:	48 c1 e3 06          	shl    $0x6,%rbx
    5a9d:	48 8b 6c 24 60       	mov    0x60(%rsp),%rbp
    5aa2:	48 89 e8             	mov    %rbp,%rax
    5aa5:	48 0f af c3          	imul   %rbx,%rax
    5aa9:	48 8d 3c 85 10 00 00 	lea    0x10(,%rax,4),%rdi
    5ab0:	00 
    5ab1:	48 89 3c 24          	mov    %rdi,(%rsp)
    5ab5:	e8 16 c6 ff ff       	call   20d0 <malloc@plt>
    5aba:	49 89 c7             	mov    %rax,%r15
    5abd:	4c 8d 60 0f          	lea    0xf(%rax),%r12
    5ac1:	49 83 e4 f0          	and    $0xfffffffffffffff0,%r12
    5ac5:	bf 03 00 00 00       	mov    $0x3,%edi
    5aca:	e8 d1 c6 ff ff       	call   21a0 <omTensorCreateUntyped@plt>
    5acf:	49 89 c6             	mov    %rax,%r14
    5ad2:	48 89 c7             	mov    %rax,%rdi
    5ad5:	31 f6                	xor    %esi,%esi
    5ad7:	4c 89 7c 24 70       	mov    %r15,0x70(%rsp)
    5adc:	4c 89 fa             	mov    %r15,%rdx
    5adf:	4c 89 64 24 08       	mov    %r12,0x8(%rsp)
    5ae4:	4c 89 e1             	mov    %r12,%rcx
    5ae7:	e8 04 c6 ff ff       	call   20f0 <omTensorSetDataPtr@plt>
    5aec:	be 01 00 00 00       	mov    $0x1,%esi
    5af1:	4c 89 f7             	mov    %r14,%rdi
    5af4:	e8 a7 c5 ff ff       	call   20a0 <omTensorSetDataType@plt>
    5af9:	4c 89 f7             	mov    %r14,%rdi
    5afc:	e8 cf c6 ff ff       	call   21d0 <omTensorGetShape@plt>
    5b01:	49 89 c7             	mov    %rax,%r15
    5b04:	4c 89 f7             	mov    %r14,%rdi
    5b07:	e8 64 c5 ff ff       	call   2070 <omTensorGetStrides@plt>
    5b0c:	49 89 2f             	mov    %rbp,(%r15)
    5b0f:	48 89 18             	mov    %rbx,(%rax)
    5b12:	49 c7 47 08 40 00 00 	movq   $0x40,0x8(%r15)
    5b19:	00 
    5b1a:	4c 89 68 08          	mov    %r13,0x8(%rax)
    5b1e:	4d 89 6f 10          	mov    %r13,0x10(%r15)
    5b22:	48 c7 40 10 01 00 00 	movq   $0x1,0x10(%rax)
    5b29:	00 
    5b2a:	bf 02 00 00 00       	mov    $0x2,%edi
    5b2f:	e8 6c c6 ff ff       	call   21a0 <omTensorCreateUntyped@plt>
    5b34:	48 89 c3             	mov    %rax,%rbx
    5b37:	48 8d 0d d2 2b 0d 00 	lea    0xd2bd2(%rip),%rcx        # d8710 <constant_14_mobilenet>
    5b3e:	48 89 c7             	mov    %rax,%rdi
    5b41:	31 f6                	xor    %esi,%esi
    5b43:	48 89 ca             	mov    %rcx,%rdx
    5b46:	e8 a5 c5 ff ff       	call   20f0 <omTensorSetDataPtr@plt>
    5b4b:	be 01 00 00 00       	mov    $0x1,%esi
    5b50:	48 89 df             	mov    %rbx,%rdi
    5b53:	e8 48 c5 ff ff       	call   20a0 <omTensorSetDataType@plt>
    5b58:	48 89 df             	mov    %rbx,%rdi
    5b5b:	e8 70 c6 ff ff       	call   21d0 <omTensorGetShape@plt>
    5b60:	49 89 c7             	mov    %rax,%r15
    5b63:	48 89 df             	mov    %rbx,%rdi
    5b66:	e8 05 c5 ff ff       	call   2070 <omTensorGetStrides@plt>
    5b6b:	49 c7 07 40 00 00 00 	movq   $0x40,(%r15)
    5b72:	48 c7 00 20 00 00 00 	movq   $0x20,(%rax)
    5b79:	49 c7 47 08 20 00 00 	movq   $0x20,0x8(%r15)
    5b80:	00 
    5b81:	48 c7 40 08 01 00 00 	movq   $0x1,0x8(%rax)
    5b88:	00 
    5b89:	bf 03 00 00 00       	mov    $0x3,%edi
    5b8e:	e8 0d c6 ff ff       	call   21a0 <omTensorCreateUntyped@plt>
    5b93:	49 89 c7             	mov    %rax,%r15
    5b96:	48 89 c7             	mov    %rax,%rdi
    5b99:	31 f6                	xor    %esi,%esi
    5b9b:	48 8b 54 24 10       	mov    0x10(%rsp),%rdx
    5ba0:	48 8b 4c 24 30       	mov    0x30(%rsp),%rcx
    5ba5:	e8 46 c5 ff ff       	call   20f0 <omTensorSetDataPtr@plt>
    5baa:	be 01 00 00 00       	mov    $0x1,%esi
    5baf:	4c 89 ff             	mov    %r15,%rdi
    5bb2:	e8 e9 c4 ff ff       	call   20a0 <omTensorSetDataType@plt>
    5bb7:	4c 89 ff             	mov    %r15,%rdi
    5bba:	e8 11 c6 ff ff       	call   21d0 <omTensorGetShape@plt>
    5bbf:	49 89 c4             	mov    %rax,%r12
    5bc2:	4c 89 ff             	mov    %r15,%rdi
    5bc5:	e8 a6 c4 ff ff       	call   2070 <omTensorGetStrides@plt>
    5bca:	49 89 2c 24          	mov    %rbp,(%r12)
    5bce:	48 8b 4c 24 20       	mov    0x20(%rsp),%rcx
    5bd3:	48 89 08             	mov    %rcx,(%rax)
    5bd6:	49 c7 44 24 08 20 00 	movq   $0x20,0x8(%r12)
    5bdd:	00 00 
    5bdf:	4c 89 68 08          	mov    %r13,0x8(%rax)
    5be3:	4d 89 6c 24 10       	mov    %r13,0x10(%r12)
    5be8:	48 c7 40 10 01 00 00 	movq   $0x1,0x10(%rax)
    5bef:	00 
    5bf0:	4c 89 f7             	mov    %r14,%rdi
    5bf3:	48 89 de             	mov    %rbx,%rsi
    5bf6:	4c 89 fa             	mov    %r15,%rdx
    5bf9:	e8 52 c4 ff ff       	call   2050 <MatMul@plt>
    5bfe:	4c 89 f7             	mov    %r14,%rdi
    5c01:	e8 aa c5 ff ff       	call   21b0 <omTensorDestroy@plt>
    5c06:	48 89 df             	mov    %rbx,%rdi
    5c09:	e8 a2 c5 ff ff       	call   21b0 <omTensorDestroy@plt>
    5c0e:	4c 89 ff             	mov    %r15,%rdi
    5c11:	e8 9a c5 ff ff       	call   21b0 <omTensorDestroy@plt>
    5c16:	48 8b 7c 24 10       	mov    0x10(%rsp),%rdi
    5c1b:	e8 f0 c4 ff ff       	call   2110 <free@plt>
    5c20:	48 8b 3c 24          	mov    (%rsp),%rdi
    5c24:	e8 a7 c4 ff ff       	call   20d0 <malloc@plt>
    5c29:	48 89 44 24 50       	mov    %rax,0x50(%rsp)
    5c2e:	48 83 c0 0f          	add    $0xf,%rax
    5c32:	48 83 e0 f0          	and    $0xfffffffffffffff0,%rax
    5c36:	48 89 44 24 40       	mov    %rax,0x40(%rsp)
    5c3b:	48 85 ed             	test   %rbp,%rbp
    5c3e:	0f 8e 59 01 00 00    	jle    5d9d <main_graph_mobilenet+0x3acd>
    5c44:	4c 89 e8             	mov    %r13,%rax
    5c47:	48 c1 e0 08          	shl    $0x8,%rax
    5c4b:	48 89 44 24 10       	mov    %rax,0x10(%rsp)
    5c50:	4a 8d 0c ad 00 00 00 	lea    0x0(,%r13,4),%rcx
    5c57:	00 
    5c58:	4c 89 eb             	mov    %r13,%rbx
    5c5b:	48 83 e3 f8          	and    $0xfffffffffffffff8,%rbx
    5c5f:	48 8b 6c 24 40       	mov    0x40(%rsp),%rbp
    5c64:	48 8d 45 10          	lea    0x10(%rbp),%rax
    5c68:	48 89 04 24          	mov    %rax,(%rsp)
    5c6c:	48 8b 44 24 08       	mov    0x8(%rsp),%rax
    5c71:	48 8d 50 10          	lea    0x10(%rax),%rdx
    5c75:	48 89 54 24 20       	mov    %rdx,0x20(%rsp)
    5c7a:	45 31 c0             	xor    %r8d,%r8d
    5c7d:	4c 8d 0d 8c 68 01 00 	lea    0x1688c(%rip),%r9        # 1c510 <constant_27_mobilenet>
    5c84:	48 89 44 24 30       	mov    %rax,0x30(%rsp)
    5c89:	eb 29                	jmp    5cb4 <main_graph_mobilenet+0x39e4>
    5c8b:	0f 1f 44 00 00       	nopl   0x0(%rax,%rax,1)
    5c90:	49 ff c0             	inc    %r8
    5c93:	48 8b 44 24 10       	mov    0x10(%rsp),%rax
    5c98:	48 01 04 24          	add    %rax,(%rsp)
    5c9c:	48 01 44 24 20       	add    %rax,0x20(%rsp)
    5ca1:	48 01 c5             	add    %rax,%rbp
    5ca4:	48 01 44 24 30       	add    %rax,0x30(%rsp)
    5ca9:	4c 3b 44 24 60       	cmp    0x60(%rsp),%r8
    5cae:	0f 84 e9 00 00 00    	je     5d9d <main_graph_mobilenet+0x3acd>
    5cb4:	4d 85 ed             	test   %r13,%r13
    5cb7:	7e d7                	jle    5c90 <main_graph_mobilenet+0x39c0>
    5cb9:	4c 8b 74 24 10       	mov    0x10(%rsp),%r14
    5cbe:	4d 0f af f0          	imul   %r8,%r14
    5cc2:	48 8b 44 24 40       	mov    0x40(%rsp),%rax
    5cc7:	4e 8d 3c 30          	lea    (%rax,%r14,1),%r15
    5ccb:	4c 03 74 24 08       	add    0x8(%rsp),%r14
    5cd0:	4c 8b 64 24 30       	mov    0x30(%rsp),%r12
    5cd5:	49 89 eb             	mov    %rbp,%r11
    5cd8:	48 8b 7c 24 20       	mov    0x20(%rsp),%rdi
    5cdd:	48 8b 34 24          	mov    (%rsp),%rsi
    5ce1:	31 c0                	xor    %eax,%eax
    5ce3:	eb 20                	jmp    5d05 <main_graph_mobilenet+0x3a35>
    5ce5:	66 2e 0f 1f 84 00 00 	cs nopw 0x0(%rax,%rax,1)
    5cec:	00 00 00 
    5cef:	90                   	nop
    5cf0:	48 ff c0             	inc    %rax
    5cf3:	48 01 ce             	add    %rcx,%rsi
    5cf6:	48 01 cf             	add    %rcx,%rdi
    5cf9:	49 01 cb             	add    %rcx,%r11
    5cfc:	49 01 cc             	add    %rcx,%r12
    5cff:	48 83 f8 40          	cmp    $0x40,%rax
    5d03:	74 8b                	je     5c90 <main_graph_mobilenet+0x39c0>
    5d05:	49 83 fd 08          	cmp    $0x8,%r13
    5d09:	f3 41 0f 10 04 81    	movss  (%r9,%rax,4),%xmm0
    5d0f:	73 0f                	jae    5d20 <main_graph_mobilenet+0x3a50>
    5d11:	31 d2                	xor    %edx,%edx
    5d13:	eb 6b                	jmp    5d80 <main_graph_mobilenet+0x3ab0>
    5d15:	66 2e 0f 1f 84 00 00 	cs nopw 0x0(%rax,%rax,1)
    5d1c:	00 00 00 
    5d1f:	90                   	nop
    5d20:	48 89 ca             	mov    %rcx,%rdx
    5d23:	48 0f af d0          	imul   %rax,%rdx
    5d27:	4d 8d 14 16          	lea    (%r14,%rdx,1),%r10
    5d2b:	4c 01 fa             	add    %r15,%rdx
    5d2e:	4c 29 d2             	sub    %r10,%rdx
    5d31:	48 83 fa 20          	cmp    $0x20,%rdx
    5d35:	73 09                	jae    5d40 <main_graph_mobilenet+0x3a70>
    5d37:	31 d2                	xor    %edx,%edx
    5d39:	eb 45                	jmp    5d80 <main_graph_mobilenet+0x3ab0>
    5d3b:	0f 1f 44 00 00       	nopl   0x0(%rax,%rax,1)
    5d40:	0f 28 c8             	movaps %xmm0,%xmm1
    5d43:	0f c6 c8 00          	shufps $0x0,%xmm0,%xmm1
    5d47:	31 d2                	xor    %edx,%edx
    5d49:	0f 1f 80 00 00 00 00 	nopl   0x0(%rax)
    5d50:	0f 10 54 97 f0       	movups -0x10(%rdi,%rdx,4),%xmm2
    5d55:	0f 10 1c 97          	movups (%rdi,%rdx,4),%xmm3
    5d59:	0f 58 d1             	addps  %xmm1,%xmm2
    5d5c:	0f 58 d9             	addps  %xmm1,%xmm3
    5d5f:	0f 11 54 96 f0       	movups %xmm2,-0x10(%rsi,%rdx,4)
    5d64:	0f 11 1c 96          	movups %xmm3,(%rsi,%rdx,4)
    5d68:	48 83 c2 08          	add    $0x8,%rdx
    5d6c:	48 39 d3             	cmp    %rdx,%rbx
    5d6f:	75 df                	jne    5d50 <main_graph_mobilenet+0x3a80>
    5d71:	49 39 dd             	cmp    %rbx,%r13
    5d74:	48 89 da             	mov    %rbx,%rdx
    5d77:	0f 84 73 ff ff ff    	je     5cf0 <main_graph_mobilenet+0x3a20>
    5d7d:	0f 1f 00             	nopl   (%rax)
    5d80:	f3 41 0f 10 0c 94    	movss  (%r12,%rdx,4),%xmm1
    5d86:	f3 0f 58 c8          	addss  %xmm0,%xmm1
    5d8a:	f3 41 0f 11 0c 93    	movss  %xmm1,(%r11,%rdx,4)
    5d90:	48 ff c2             	inc    %rdx
    5d93:	49 39 d5             	cmp    %rdx,%r13
    5d96:	75 e8                	jne    5d80 <main_graph_mobilenet+0x3ab0>
    5d98:	e9 53 ff ff ff       	jmp    5cf0 <main_graph_mobilenet+0x3a20>
    5d9d:	48 8b 7c 24 70       	mov    0x70(%rsp),%rdi
    5da2:	e8 69 c3 ff ff       	call   2110 <free@plt>
    5da7:	bf 30 00 00 00       	mov    $0x30,%edi
    5dac:	e8 1f c3 ff ff       	call   20d0 <malloc@plt>
    5db1:	49 89 c7             	mov    %rax,%r15
    5db4:	4c 8d 60 0f          	lea    0xf(%rax),%r12
    5db8:	49 83 e4 f0          	and    $0xfffffffffffffff0,%r12
    5dbc:	48 8b 44 24 78       	mov    0x78(%rsp),%rax
    5dc1:	48 8b 00             	mov    (%rax),%rax
    5dc4:	49 89 04 24          	mov    %rax,(%r12)
    5dc8:	48 8b 7c 24 58       	mov    0x58(%rsp),%rdi
    5dcd:	e8 3e c3 ff ff       	call   2110 <free@plt>
    5dd2:	48 8b 44 24 60       	mov    0x60(%rsp),%rax
    5dd7:	4c 0f af e8          	imul   %rax,%r13
    5ddb:	49 c1 e5 06          	shl    $0x6,%r13
    5ddf:	49 8b 0c 24          	mov    (%r12),%rcx
    5de3:	48 85 c9             	test   %rcx,%rcx
    5de6:	48 0f 44 c8          	cmove  %rax,%rcx
    5dea:	48 89 c8             	mov    %rcx,%rax
    5ded:	48 c1 e0 0a          	shl    $0xa,%rax
    5df1:	48 83 f9 ff          	cmp    $0xffffffffffffffff,%rcx
    5df5:	48 8d 34 c0          	lea    (%rax,%rax,8),%rsi
    5df9:	b8 00 24 00 00       	mov    $0x2400,%eax
    5dfe:	48 0f 44 f0          	cmove  %rax,%rsi
    5e02:	48 89 f0             	mov    %rsi,%rax
    5e05:	48 f7 d0             	not    %rax
    5e08:	48 c1 f8 3f          	sar    $0x3f,%rax
    5e0c:	48 83 c8 01          	or     $0x1,%rax
    5e10:	4c 29 e8             	sub    %r13,%rax
    5e13:	48 99                	cqto   
    5e15:	48 f7 fe             	idiv   %rsi
    5e18:	49 89 c6             	mov    %rax,%r14
    5e1b:	49 f7 d6             	not    %r14
    5e1e:	4c 89 e8             	mov    %r13,%rax
    5e21:	48 99                	cqto   
    5e23:	48 f7 fe             	idiv   %rsi
    5e26:	48 85 f6             	test   %rsi,%rsi
    5e29:	48 89 c2             	mov    %rax,%rdx
    5e2c:	49 0f 48 d6          	cmovs  %r14,%rdx
    5e30:	4d 85 ed             	test   %r13,%r13
    5e33:	48 0f 4e d0          	cmovle %rax,%rdx
    5e37:	48 85 f6             	test   %rsi,%rsi
    5e3a:	4c 0f 4e f2          	cmovle %rdx,%r14
    5e3e:	4d 85 ed             	test   %r13,%r13
    5e41:	4c 0f 49 f2          	cmovns %rdx,%r14
    5e45:	48 83 f9 ff          	cmp    $0xffffffffffffffff,%rcx
    5e49:	4c 0f 45 f1          	cmovne %rcx,%r14
    5e4d:	4c 89 f0             	mov    %r14,%rax
    5e50:	48 c1 e0 0a          	shl    $0xa,%rax
    5e54:	48 8d 0c c0          	lea    (%rax,%rax,8),%rcx
    5e58:	4c 89 f6             	mov    %r14,%rsi
    5e5b:	48 c1 e6 06          	shl    $0x6,%rsi
    5e5f:	49 83 fe ff          	cmp    $0xffffffffffffffff,%r14
    5e63:	b8 40 00 00 00       	mov    $0x40,%eax
    5e68:	48 0f 44 f0          	cmove  %rax,%rsi
    5e6c:	48 89 f0             	mov    %rsi,%rax
    5e6f:	48 f7 d0             	not    %rax
    5e72:	48 c1 f8 3f          	sar    $0x3f,%rax
    5e76:	48 83 c8 01          	or     $0x1,%rax
    5e7a:	48 29 c8             	sub    %rcx,%rax
    5e7d:	48 99                	cqto   
    5e7f:	48 f7 fe             	idiv   %rsi
    5e82:	48 89 c5             	mov    %rax,%rbp
    5e85:	48 f7 d5             	not    %rbp
    5e88:	48 89 c8             	mov    %rcx,%rax
    5e8b:	48 99                	cqto   
    5e8d:	48 f7 fe             	idiv   %rsi
    5e90:	48 85 f6             	test   %rsi,%rsi
    5e93:	48 89 c2             	mov    %rax,%rdx
    5e96:	48 0f 48 d5          	cmovs  %rbp,%rdx
    5e9a:	48 85 c9             	test   %rcx,%rcx
    5e9d:	48 0f 4e d0          	cmovle %rax,%rdx
    5ea1:	48 85 f6             	test   %rsi,%rsi
    5ea4:	48 0f 4e ea          	cmovle %rdx,%rbp
    5ea8:	48 85 c9             	test   %rcx,%rcx
    5eab:	48 0f 49 ea          	cmovns %rdx,%rbp
    5eaf:	49 83 fe ff          	cmp    $0xffffffffffffffff,%r14
    5eb3:	49 c7 44 24 08 40 00 	movq   $0x40,0x8(%r12)
    5eba:	00 00 
    5ebc:	49 c7 44 24 10 0c 00 	movq   $0xc,0x10(%r12)
    5ec3:	00 00 
    5ec5:	49 c7 44 24 18 0c 00 	movq   $0xc,0x18(%r12)
    5ecc:	00 00 
    5ece:	4c 89 f0             	mov    %r14,%rax
    5ed1:	48 0f 44 c5          	cmove  %rbp,%rax
    5ed5:	48 89 44 24 60       	mov    %rax,0x60(%rsp)
    5eda:	4c 89 ff             	mov    %r15,%rdi
    5edd:	e8 2e c2 ff ff       	call   2110 <free@plt>
    5ee2:	4c 89 f0             	mov    %r14,%rax
    5ee5:	48 c1 e0 0c          	shl    $0xc,%rax
    5ee9:	48 8d 7c c0 10       	lea    0x10(%rax,%rax,8),%rdi
    5eee:	48 89 7c 24 10       	mov    %rdi,0x10(%rsp)
    5ef3:	e8 d8 c1 ff ff       	call   20d0 <malloc@plt>
    5ef8:	49 89 c7             	mov    %rax,%r15
    5efb:	4c 8d 60 0f          	lea    0xf(%rax),%r12
    5eff:	48 89 04 24          	mov    %rax,(%rsp)
    5f03:	49 83 e4 f0          	and    $0xfffffffffffffff0,%r12
    5f07:	4c 89 64 24 08       	mov    %r12,0x8(%rsp)
    5f0c:	bf 04 00 00 00       	mov    $0x4,%edi
    5f11:	e8 8a c2 ff ff       	call   21a0 <omTensorCreateUntyped@plt>
    5f16:	48 89 c3             	mov    %rax,%rbx
    5f19:	48 89 c7             	mov    %rax,%rdi
    5f1c:	31 f6                	xor    %esi,%esi
    5f1e:	4c 89 fa             	mov    %r15,%rdx
    5f21:	4c 89 e1             	mov    %r12,%rcx
    5f24:	e8 c7 c1 ff ff       	call   20f0 <omTensorSetDataPtr@plt>
    5f29:	be 01 00 00 00       	mov    $0x1,%esi
    5f2e:	48 89 df             	mov    %rbx,%rdi
    5f31:	e8 6a c1 ff ff       	call   20a0 <omTensorSetDataType@plt>
    5f36:	48 89 df             	mov    %rbx,%rdi
    5f39:	e8 92 c2 ff ff       	call   21d0 <omTensorGetShape@plt>
    5f3e:	49 89 c4             	mov    %rax,%r12
    5f41:	48 89 df             	mov    %rbx,%rdi
    5f44:	e8 27 c1 ff ff       	call   2070 <omTensorGetStrides@plt>
    5f49:	4d 89 34 24          	mov    %r14,(%r12)
    5f4d:	48 c7 00 00 24 00 00 	movq   $0x2400,(%rax)
    5f54:	49 c7 44 24 08 40 00 	movq   $0x40,0x8(%r12)
    5f5b:	00 00 
    5f5d:	48 c7 40 08 90 00 00 	movq   $0x90,0x8(%rax)
    5f64:	00 
    5f65:	49 c7 44 24 10 0c 00 	movq   $0xc,0x10(%r12)
    5f6c:	00 00 
    5f6e:	48 c7 40 10 0c 00 00 	movq   $0xc,0x10(%rax)
    5f75:	00 
    5f76:	49 c7 44 24 18 0c 00 	movq   $0xc,0x18(%r12)
    5f7d:	00 00 
    5f7f:	48 c7 40 18 01 00 00 	movq   $0x1,0x18(%rax)
    5f86:	00 
    5f87:	bf 04 00 00 00       	mov    $0x4,%edi
    5f8c:	e8 0f c2 ff ff       	call   21a0 <omTensorCreateUntyped@plt>
    5f91:	49 89 c4             	mov    %rax,%r12
    5f94:	48 89 c7             	mov    %rax,%rdi
    5f97:	31 f6                	xor    %esi,%esi
    5f99:	4c 8b 7c 24 50       	mov    0x50(%rsp),%r15
    5f9e:	4c 89 fa             	mov    %r15,%rdx
    5fa1:	48 8b 4c 24 40       	mov    0x40(%rsp),%rcx
    5fa6:	e8 45 c1 ff ff       	call   20f0 <omTensorSetDataPtr@plt>
    5fab:	be 01 00 00 00       	mov    $0x1,%esi
    5fb0:	4c 89 e7             	mov    %r12,%rdi
    5fb3:	e8 e8 c0 ff ff       	call   20a0 <omTensorSetDataType@plt>
    5fb8:	4c 89 e7             	mov    %r12,%rdi
    5fbb:	e8 10 c2 ff ff       	call   21d0 <omTensorGetShape@plt>
    5fc0:	49 89 c5             	mov    %rax,%r13
    5fc3:	4c 89 e7             	mov    %r12,%rdi
    5fc6:	e8 a5 c0 ff ff       	call   2070 <omTensorGetStrides@plt>
    5fcb:	4d 89 75 00          	mov    %r14,0x0(%r13)
    5fcf:	48 c7 00 00 24 00 00 	movq   $0x2400,(%rax)
    5fd6:	49 c7 45 08 40 00 00 	movq   $0x40,0x8(%r13)
    5fdd:	00 
    5fde:	48 c7 40 08 90 00 00 	movq   $0x90,0x8(%rax)
    5fe5:	00 
    5fe6:	49 c7 45 10 0c 00 00 	movq   $0xc,0x10(%r13)
    5fed:	00 
    5fee:	48 c7 40 10 0c 00 00 	movq   $0xc,0x10(%rax)
    5ff5:	00 
    5ff6:	49 c7 45 18 0c 00 00 	movq   $0xc,0x18(%r13)
    5ffd:	00 
    5ffe:	48 c7 40 18 01 00 00 	movq   $0x1,0x18(%rax)
    6005:	00 
    6006:	48 89 df             	mov    %rbx,%rdi
    6009:	4c 89 e6             	mov    %r12,%rsi
    600c:	e8 df c1 ff ff       	call   21f0 <Relu@plt>
    6011:	48 89 df             	mov    %rbx,%rdi
    6014:	e8 97 c1 ff ff       	call   21b0 <omTensorDestroy@plt>
    6019:	4c 89 e7             	mov    %r12,%rdi
    601c:	e8 8f c1 ff ff       	call   21b0 <omTensorDestroy@plt>
    6021:	4c 89 ff             	mov    %r15,%rdi
    6024:	e8 e7 c0 ff ff       	call   2110 <free@plt>
    6029:	48 8b 7c 24 10       	mov    0x10(%rsp),%rdi
    602e:	e8 9d c0 ff ff       	call   20d0 <malloc@plt>
    6033:	48 89 c3             	mov    %rax,%rbx
    6036:	4c 8d 78 0f          	lea    0xf(%rax),%r15
    603a:	48 89 44 24 30       	mov    %rax,0x30(%rsp)
    603f:	49 83 e7 f0          	and    $0xfffffffffffffff0,%r15
    6043:	4c 89 7c 24 20       	mov    %r15,0x20(%rsp)
    6048:	bf 04 00 00 00       	mov    $0x4,%edi
    604d:	e8 4e c1 ff ff       	call   21a0 <omTensorCreateUntyped@plt>
    6052:	49 89 c4             	mov    %rax,%r12
    6055:	48 89 c7             	mov    %rax,%rdi
    6058:	31 f6                	xor    %esi,%esi
    605a:	48 89 da             	mov    %rbx,%rdx
    605d:	4c 89 f9             	mov    %r15,%rcx
    6060:	e8 8b c0 ff ff       	call   20f0 <omTensorSetDataPtr@plt>
    6065:	be 01 00 00 00       	mov    $0x1,%esi
    606a:	4c 89 e3             	mov    %r12,%rbx
    606d:	4c 89 64 24 40       	mov    %r12,0x40(%rsp)
    6072:	4c 89 e7             	mov    %r12,%rdi
    6075:	e8 26 c0 ff ff       	call   20a0 <omTensorSetDataType@plt>
    607a:	4c 89 e7             	mov    %r12,%rdi
    607d:	e8 4e c1 ff ff       	call   21d0 <omTensorGetShape@plt>
    6082:	49 89 c4             	mov    %rax,%r12
    6085:	48 89 df             	mov    %rbx,%rdi
    6088:	e8 e3 bf ff ff       	call   2070 <omTensorGetStrides@plt>
    608d:	4d 89 34 24          	mov    %r14,(%r12)
    6091:	48 c7 00 00 24 00 00 	movq   $0x2400,(%rax)
    6098:	49 c7 44 24 08 40 00 	movq   $0x40,0x8(%r12)
    609f:	00 00 
    60a1:	48 c7 40 08 90 00 00 	movq   $0x90,0x8(%rax)
    60a8:	00 
    60a9:	49 c7 44 24 10 0c 00 	movq   $0xc,0x10(%r12)
    60b0:	00 00 
    60b2:	48 c7 40 10 0c 00 00 	movq   $0xc,0x10(%rax)
    60b9:	00 
    60ba:	49 c7 44 24 18 0c 00 	movq   $0xc,0x18(%r12)
    60c1:	00 00 
    60c3:	48 c7 40 18 01 00 00 	movq   $0x1,0x18(%rax)
    60ca:	00 
    60cb:	bf 04 00 00 00       	mov    $0x4,%edi
    60d0:	e8 cb c0 ff ff       	call   21a0 <omTensorCreateUntyped@plt>
    60d5:	48 89 c3             	mov    %rax,%rbx
    60d8:	48 89 c7             	mov    %rax,%rdi
    60db:	31 f6                	xor    %esi,%esi
    60dd:	48 8b 14 24          	mov    (%rsp),%rdx
    60e1:	48 8b 4c 24 08       	mov    0x8(%rsp),%rcx
    60e6:	e8 05 c0 ff ff       	call   20f0 <omTensorSetDataPtr@plt>
    60eb:	be 01 00 00 00       	mov    $0x1,%esi
    60f0:	48 89 df             	mov    %rbx,%rdi
    60f3:	e8 a8 bf ff ff       	call   20a0 <omTensorSetDataType@plt>
    60f8:	48 89 df             	mov    %rbx,%rdi
    60fb:	e8 d0 c0 ff ff       	call   21d0 <omTensorGetShape@plt>
    6100:	49 89 c7             	mov    %rax,%r15
    6103:	48 89 df             	mov    %rbx,%rdi
    6106:	e8 65 bf ff ff       	call   2070 <omTensorGetStrides@plt>
    610b:	4d 89 37             	mov    %r14,(%r15)
    610e:	48 c7 00 00 24 00 00 	movq   $0x2400,(%rax)
    6115:	49 c7 47 08 40 00 00 	movq   $0x40,0x8(%r15)
    611c:	00 
    611d:	48 c7 40 08 90 00 00 	movq   $0x90,0x8(%rax)
    6124:	00 
    6125:	49 c7 47 10 0c 00 00 	movq   $0xc,0x10(%r15)
    612c:	00 
    612d:	48 c7 40 10 0c 00 00 	movq   $0xc,0x10(%rax)
    6134:	00 
    6135:	49 c7 47 18 0c 00 00 	movq   $0xc,0x18(%r15)
    613c:	00 
    613d:	48 c7 40 18 01 00 00 	movq   $0x1,0x18(%rax)
    6144:	00 
    6145:	4c 8d 25 84 92 00 00 	lea    0x9284(%rip),%r12        # f3d0 <constant_65_mobilenet>
    614c:	bf 04 00 00 00       	mov    $0x4,%edi
    6151:	e8 4a c0 ff ff       	call   21a0 <omTensorCreateUntyped@plt>
    6156:	49 89 c7             	mov    %rax,%r15
    6159:	48 89 c7             	mov    %rax,%rdi
    615c:	31 f6                	xor    %esi,%esi
    615e:	4c 89 e2             	mov    %r12,%rdx
    6161:	4c 89 e1             	mov    %r12,%rcx
    6164:	e8 87 bf ff ff       	call   20f0 <omTensorSetDataPtr@plt>
    6169:	be 01 00 00 00       	mov    $0x1,%esi
    616e:	4c 89 ff             	mov    %r15,%rdi
    6171:	e8 2a bf ff ff       	call   20a0 <omTensorSetDataType@plt>
    6176:	4c 89 ff             	mov    %r15,%rdi
    6179:	e8 52 c0 ff ff       	call   21d0 <omTensorGetShape@plt>
    617e:	49 89 c4             	mov    %rax,%r12
    6181:	4c 89 ff             	mov    %r15,%rdi
    6184:	e8 e7 be ff ff       	call   2070 <omTensorGetStrides@plt>
    6189:	49 c7 04 24 40 00 00 	movq   $0x40,(%r12)
    6190:	00 
    6191:	48 c7 00 09 00 00 00 	movq   $0x9,(%rax)
    6198:	49 c7 44 24 08 01 00 	movq   $0x1,0x8(%r12)
    619f:	00 00 
    61a1:	48 c7 40 08 09 00 00 	movq   $0x9,0x8(%rax)
    61a8:	00 
    61a9:	49 c7 44 24 10 03 00 	movq   $0x3,0x10(%r12)
    61b0:	00 00 
    61b2:	48 c7 40 10 03 00 00 	movq   $0x3,0x10(%rax)
    61b9:	00 
    61ba:	49 c7 44 24 18 03 00 	movq   $0x3,0x18(%r12)
    61c1:	00 00 
    61c3:	48 c7 40 18 01 00 00 	movq   $0x1,0x18(%rax)
    61ca:	00 
    61cb:	4c 8d 2d 3e 4d 01 00 	lea    0x14d3e(%rip),%r13        # 1af10 <constant_39_mobilenet>
    61d2:	bf 01 00 00 00       	mov    $0x1,%edi
    61d7:	e8 c4 bf ff ff       	call   21a0 <omTensorCreateUntyped@plt>
    61dc:	49 89 c4             	mov    %rax,%r12
    61df:	48 89 c7             	mov    %rax,%rdi
    61e2:	31 f6                	xor    %esi,%esi
    61e4:	4c 89 ea             	mov    %r13,%rdx
    61e7:	4c 89 e9             	mov    %r13,%rcx
    61ea:	e8 01 bf ff ff       	call   20f0 <omTensorSetDataPtr@plt>
    61ef:	be 01 00 00 00       	mov    $0x1,%esi
    61f4:	4c 89 e7             	mov    %r12,%rdi
    61f7:	e8 a4 be ff ff       	call   20a0 <omTensorSetDataType@plt>
    61fc:	4c 89 e7             	mov    %r12,%rdi
    61ff:	e8 cc bf ff ff       	call   21d0 <omTensorGetShape@plt>
    6204:	49 89 c5             	mov    %rax,%r13
    6207:	4c 89 e7             	mov    %r12,%rdi
    620a:	e8 61 be ff ff       	call   2070 <omTensorGetStrides@plt>
    620f:	49 c7 45 00 40 00 00 	movq   $0x40,0x0(%r13)
    6216:	00 
    6217:	48 c7 00 01 00 00 00 	movq   $0x1,(%rax)
    621e:	4c 8b 6c 24 40       	mov    0x40(%rsp),%r13
    6223:	4c 89 ef             	mov    %r13,%rdi
    6226:	48 89 de             	mov    %rbx,%rsi
    6229:	4c 89 fa             	mov    %r15,%rdx
    622c:	4c 89 e1             	mov    %r12,%rcx
    622f:	41 b8 01 00 00 00    	mov    $0x1,%r8d
    6235:	41 b9 01 00 00 00    	mov    $0x1,%r9d
    623b:	6a 01                	push   $0x1
    623d:	6a 01                	push   $0x1
    623f:	6a 01                	push   $0x1
    6241:	6a 01                	push   $0x1
    6243:	e8 18 bf ff ff       	call   2160 <Conv2D_bias@plt>
    6248:	48 83 c4 20          	add    $0x20,%rsp
    624c:	4c 89 ef             	mov    %r13,%rdi
    624f:	e8 5c bf ff ff       	call   21b0 <omTensorDestroy@plt>
    6254:	48 89 df             	mov    %rbx,%rdi
    6257:	e8 54 bf ff ff       	call   21b0 <omTensorDestroy@plt>
    625c:	4c 89 ff             	mov    %r15,%rdi
    625f:	e8 4c bf ff ff       	call   21b0 <omTensorDestroy@plt>
    6264:	4c 89 e7             	mov    %r12,%rdi
    6267:	e8 44 bf ff ff       	call   21b0 <omTensorDestroy@plt>
    626c:	48 8b 3c 24          	mov    (%rsp),%rdi
    6270:	e8 9b be ff ff       	call   2110 <free@plt>
    6275:	48 8b 7c 24 10       	mov    0x10(%rsp),%rdi
    627a:	e8 51 be ff ff       	call   20d0 <malloc@plt>
    627f:	49 89 c7             	mov    %rax,%r15
    6282:	4c 8d 60 0f          	lea    0xf(%rax),%r12
    6286:	48 89 44 24 10       	mov    %rax,0x10(%rsp)
    628b:	49 83 e4 f0          	and    $0xfffffffffffffff0,%r12
    628f:	4c 89 24 24          	mov    %r12,(%rsp)
    6293:	bf 04 00 00 00       	mov    $0x4,%edi
    6298:	e8 03 bf ff ff       	call   21a0 <omTensorCreateUntyped@plt>
    629d:	48 89 c3             	mov    %rax,%rbx
    62a0:	48 89 c7             	mov    %rax,%rdi
    62a3:	31 f6                	xor    %esi,%esi
    62a5:	4c 89 fa             	mov    %r15,%rdx
    62a8:	4c 89 e1             	mov    %r12,%rcx
    62ab:	e8 40 be ff ff       	call   20f0 <omTensorSetDataPtr@plt>
    62b0:	be 01 00 00 00       	mov    $0x1,%esi
    62b5:	48 89 df             	mov    %rbx,%rdi
    62b8:	e8 e3 bd ff ff       	call   20a0 <omTensorSetDataType@plt>
    62bd:	48 89 df             	mov    %rbx,%rdi
    62c0:	e8 0b bf ff ff       	call   21d0 <omTensorGetShape@plt>
    62c5:	49 89 c4             	mov    %rax,%r12
    62c8:	48 89 df             	mov    %rbx,%rdi
    62cb:	e8 a0 bd ff ff       	call   2070 <omTensorGetStrides@plt>
    62d0:	4d 89 34 24          	mov    %r14,(%r12)
    62d4:	48 c7 00 00 24 00 00 	movq   $0x2400,(%rax)
    62db:	49 c7 44 24 08 40 00 	movq   $0x40,0x8(%r12)
    62e2:	00 00 
    62e4:	48 c7 40 08 90 00 00 	movq   $0x90,0x8(%rax)
    62eb:	00 
    62ec:	49 c7 44 24 10 0c 00 	movq   $0xc,0x10(%r12)
    62f3:	00 00 
    62f5:	48 c7 40 10 0c 00 00 	movq   $0xc,0x10(%rax)
    62fc:	00 
    62fd:	49 c7 44 24 18 0c 00 	movq   $0xc,0x18(%r12)
    6304:	00 00 
    6306:	48 c7 40 18 01 00 00 	movq   $0x1,0x18(%rax)
    630d:	00 
    630e:	bf 04 00 00 00       	mov    $0x4,%edi
    6313:	e8 88 be ff ff       	call   21a0 <omTensorCreateUntyped@plt>
    6318:	49 89 c4             	mov    %rax,%r12
    631b:	48 89 c7             	mov    %rax,%rdi
    631e:	31 f6                	xor    %esi,%esi
    6320:	4c 8b 7c 24 30       	mov    0x30(%rsp),%r15
    6325:	4c 89 fa             	mov    %r15,%rdx
    6328:	48 8b 4c 24 20       	mov    0x20(%rsp),%rcx
    632d:	e8 be bd ff ff       	call   20f0 <omTensorSetDataPtr@plt>
    6332:	be 01 00 00 00       	mov    $0x1,%esi
    6337:	4c 89 e7             	mov    %r12,%rdi
    633a:	e8 61 bd ff ff       	call   20a0 <omTensorSetDataType@plt>
    633f:	4c 89 e7             	mov    %r12,%rdi
    6342:	e8 89 be ff ff       	call   21d0 <omTensorGetShape@plt>
    6347:	49 89 c5             	mov    %rax,%r13
    634a:	4c 89 e7             	mov    %r12,%rdi
    634d:	e8 1e bd ff ff       	call   2070 <omTensorGetStrides@plt>
    6352:	4d 89 75 00          	mov    %r14,0x0(%r13)
    6356:	48 c7 00 00 24 00 00 	movq   $0x2400,(%rax)
    635d:	49 c7 45 08 40 00 00 	movq   $0x40,0x8(%r13)
    6364:	00 
    6365:	48 c7 40 08 90 00 00 	movq   $0x90,0x8(%rax)
    636c:	00 
    636d:	49 c7 45 10 0c 00 00 	movq   $0xc,0x10(%r13)
    6374:	00 
    6375:	48 c7 40 10 0c 00 00 	movq   $0xc,0x10(%rax)
    637c:	00 
    637d:	49 c7 45 18 0c 00 00 	movq   $0xc,0x18(%r13)
    6384:	00 
    6385:	48 c7 40 18 01 00 00 	movq   $0x1,0x18(%rax)
    638c:	00 
    638d:	48 89 df             	mov    %rbx,%rdi
    6390:	4c 89 e6             	mov    %r12,%rsi
    6393:	e8 58 be ff ff       	call   21f0 <Relu@plt>
    6398:	48 89 df             	mov    %rbx,%rdi
    639b:	e8 10 be ff ff       	call   21b0 <omTensorDestroy@plt>
    63a0:	4c 89 e7             	mov    %r12,%rdi
    63a3:	e8 08 be ff ff       	call   21b0 <omTensorDestroy@plt>
    63a8:	4c 89 ff             	mov    %r15,%rdi
    63ab:	e8 60 bd ff ff       	call   2110 <free@plt>
    63b0:	bf 18 00 00 00       	mov    $0x18,%edi
    63b5:	e8 16 bd ff ff       	call   20d0 <malloc@plt>
    63ba:	48 89 44 24 58       	mov    %rax,0x58(%rsp)
    63bf:	48 83 c0 0f          	add    $0xf,%rax
    63c3:	48 83 e0 f0          	and    $0xfffffffffffffff0,%rax
    63c7:	48 89 44 24 78       	mov    %rax,0x78(%rsp)
    63cc:	4c 89 30             	mov    %r14,(%rax)
    63cf:	bf 28 00 00 00       	mov    $0x28,%edi
    63d4:	e8 f7 bc ff ff       	call   20d0 <malloc@plt>
    63d9:	48 8d 48 0f          	lea    0xf(%rax),%rcx
    63dd:	48 83 e1 f0          	and    $0xfffffffffffffff0,%rcx
    63e1:	4c 89 31             	mov    %r14,(%rcx)
    63e4:	48 c7 41 08 40 00 00 	movq   $0x40,0x8(%rcx)
    63eb:	00 
    63ec:	48 c7 41 10 ff ff ff 	movq   $0xffffffffffffffff,0x10(%rcx)
    63f3:	ff 
    63f4:	48 89 c7             	mov    %rax,%rdi
    63f7:	e8 14 bd ff ff       	call   2110 <free@plt>
    63fc:	48 89 e9             	mov    %rbp,%rcx
    63ff:	48 c1 e1 06          	shl    $0x6,%rcx
    6403:	48 8b 5c 24 60       	mov    0x60(%rsp),%rbx
    6408:	48 89 d8             	mov    %rbx,%rax
    640b:	48 0f af c1          	imul   %rcx,%rax
    640f:	49 89 cf             	mov    %rcx,%r15
    6412:	48 89 4c 24 30       	mov    %rcx,0x30(%rsp)
    6417:	48 8d 3c 85 10 00 00 	lea    0x10(,%rax,4),%rdi
    641e:	00 
    641f:	48 89 7c 24 20       	mov    %rdi,0x20(%rsp)
    6424:	e8 a7 bc ff ff       	call   20d0 <malloc@plt>
    6429:	49 89 c4             	mov    %rax,%r12
    642c:	4c 8d 68 0f          	lea    0xf(%rax),%r13
    6430:	49 83 e5 f0          	and    $0xfffffffffffffff0,%r13
    6434:	bf 03 00 00 00       	mov    $0x3,%edi
    6439:	e8 62 bd ff ff       	call   21a0 <omTensorCreateUntyped@plt>
    643e:	49 89 c6             	mov    %rax,%r14
    6441:	48 89 c7             	mov    %rax,%rdi
    6444:	31 f6                	xor    %esi,%esi
    6446:	4c 89 64 24 70       	mov    %r12,0x70(%rsp)
    644b:	4c 89 e2             	mov    %r12,%rdx
    644e:	4c 89 6c 24 08       	mov    %r13,0x8(%rsp)
    6453:	4c 89 e9             	mov    %r13,%rcx
    6456:	e8 95 bc ff ff       	call   20f0 <omTensorSetDataPtr@plt>
    645b:	be 01 00 00 00       	mov    $0x1,%esi
    6460:	4c 89 f7             	mov    %r14,%rdi
    6463:	e8 38 bc ff ff       	call   20a0 <omTensorSetDataType@plt>
    6468:	4c 89 f7             	mov    %r14,%rdi
    646b:	e8 60 bd ff ff       	call   21d0 <omTensorGetShape@plt>
    6470:	49 89 c4             	mov    %rax,%r12
    6473:	4c 89 f7             	mov    %r14,%rdi
    6476:	e8 f5 bb ff ff       	call   2070 <omTensorGetStrides@plt>
    647b:	49 89 1c 24          	mov    %rbx,(%r12)
    647f:	4c 89 38             	mov    %r15,(%rax)
    6482:	49 c7 44 24 08 40 00 	movq   $0x40,0x8(%r12)
    6489:	00 00 
    648b:	48 89 68 08          	mov    %rbp,0x8(%rax)
    648f:	49 89 6c 24 10       	mov    %rbp,0x10(%r12)
    6494:	48 c7 40 10 01 00 00 	movq   $0x1,0x10(%rax)
    649b:	00 
    649c:	bf 02 00 00 00       	mov    $0x2,%edi
    64a1:	e8 fa bc ff ff       	call   21a0 <omTensorCreateUntyped@plt>
    64a6:	49 89 c5             	mov    %rax,%r13
    64a9:	48 8d 0d 60 e2 0c 00 	lea    0xce260(%rip),%rcx        # d4710 <constant_15_mobilenet>
    64b0:	48 89 c7             	mov    %rax,%rdi
    64b3:	31 f6                	xor    %esi,%esi
    64b5:	48 89 ca             	mov    %rcx,%rdx
    64b8:	e8 33 bc ff ff       	call   20f0 <omTensorSetDataPtr@plt>
    64bd:	be 01 00 00 00       	mov    $0x1,%esi
    64c2:	4c 89 ef             	mov    %r13,%rdi
    64c5:	e8 d6 bb ff ff       	call   20a0 <omTensorSetDataType@plt>
    64ca:	4c 89 ef             	mov    %r13,%rdi
    64cd:	e8 fe bc ff ff       	call   21d0 <omTensorGetShape@plt>
    64d2:	49 89 c4             	mov    %rax,%r12
    64d5:	4c 89 ef             	mov    %r13,%rdi
    64d8:	e8 93 bb ff ff       	call   2070 <omTensorGetStrides@plt>
    64dd:	49 c7 04 24 40 00 00 	movq   $0x40,(%r12)
    64e4:	00 
    64e5:	48 c7 00 40 00 00 00 	movq   $0x40,(%rax)
    64ec:	49 c7 44 24 08 40 00 	movq   $0x40,0x8(%r12)
    64f3:	00 00 
    64f5:	48 c7 40 08 01 00 00 	movq   $0x1,0x8(%rax)
    64fc:	00 
    64fd:	bf 03 00 00 00       	mov    $0x3,%edi
    6502:	e8 99 bc ff ff       	call   21a0 <omTensorCreateUntyped@plt>
    6507:	49 89 c4             	mov    %rax,%r12
    650a:	48 89 c7             	mov    %rax,%rdi
    650d:	31 f6                	xor    %esi,%esi
    650f:	48 8b 54 24 10       	mov    0x10(%rsp),%rdx
    6514:	48 8b 0c 24          	mov    (%rsp),%rcx
    6518:	e8 d3 bb ff ff       	call   20f0 <omTensorSetDataPtr@plt>
    651d:	be 01 00 00 00       	mov    $0x1,%esi
    6522:	4c 89 e7             	mov    %r12,%rdi
    6525:	e8 76 bb ff ff       	call   20a0 <omTensorSetDataType@plt>
    652a:	4c 89 e7             	mov    %r12,%rdi
    652d:	e8 9e bc ff ff       	call   21d0 <omTensorGetShape@plt>
    6532:	49 89 c7             	mov    %rax,%r15
    6535:	4c 89 e7             	mov    %r12,%rdi
    6538:	e8 33 bb ff ff       	call   2070 <omTensorGetStrides@plt>
    653d:	49 89 1f             	mov    %rbx,(%r15)
    6540:	48 8b 4c 24 30       	mov    0x30(%rsp),%rcx
    6545:	48 89 08             	mov    %rcx,(%rax)
    6548:	49 c7 47 08 40 00 00 	movq   $0x40,0x8(%r15)
    654f:	00 
    6550:	48 89 68 08          	mov    %rbp,0x8(%rax)
    6554:	49 89 6f 10          	mov    %rbp,0x10(%r15)
    6558:	48 c7 40 10 01 00 00 	movq   $0x1,0x10(%rax)
    655f:	00 
    6560:	4c 89 f7             	mov    %r14,%rdi
    6563:	4c 89 ee             	mov    %r13,%rsi
    6566:	4c 89 e2             	mov    %r12,%rdx
    6569:	e8 e2 ba ff ff       	call   2050 <MatMul@plt>
    656e:	4c 89 f7             	mov    %r14,%rdi
    6571:	e8 3a bc ff ff       	call   21b0 <omTensorDestroy@plt>
    6576:	4c 89 ef             	mov    %r13,%rdi
    6579:	e8 32 bc ff ff       	call   21b0 <omTensorDestroy@plt>
    657e:	4c 89 e7             	mov    %r12,%rdi
    6581:	e8 2a bc ff ff       	call   21b0 <omTensorDestroy@plt>
    6586:	48 8b 7c 24 10       	mov    0x10(%rsp),%rdi
    658b:	e8 80 bb ff ff       	call   2110 <free@plt>
    6590:	48 8b 7c 24 20       	mov    0x20(%rsp),%rdi
    6595:	e8 36 bb ff ff       	call   20d0 <malloc@plt>
    659a:	48 89 44 24 50       	mov    %rax,0x50(%rsp)
    659f:	48 83 c0 0f          	add    $0xf,%rax
    65a3:	48 83 e0 f0          	and    $0xfffffffffffffff0,%rax
    65a7:	48 89 44 24 40       	mov    %rax,0x40(%rsp)
    65ac:	48 85 db             	test   %rbx,%rbx
    65af:	0f 8e 58 01 00 00    	jle    670d <main_graph_mobilenet+0x443d>
    65b5:	48 89 e8             	mov    %rbp,%rax
    65b8:	48 c1 e0 08          	shl    $0x8,%rax
    65bc:	48 89 44 24 10       	mov    %rax,0x10(%rsp)
    65c1:	48 8d 0c ad 00 00 00 	lea    0x0(,%rbp,4),%rcx
    65c8:	00 
    65c9:	48 89 eb             	mov    %rbp,%rbx
    65cc:	48 83 e3 f8          	and    $0xfffffffffffffff8,%rbx
    65d0:	4c 8b 6c 24 40       	mov    0x40(%rsp),%r13
    65d5:	49 8d 45 10          	lea    0x10(%r13),%rax
    65d9:	48 89 04 24          	mov    %rax,(%rsp)
    65dd:	48 8b 44 24 08       	mov    0x8(%rsp),%rax
    65e2:	48 8d 50 10          	lea    0x10(%rax),%rdx
    65e6:	48 89 54 24 20       	mov    %rdx,0x20(%rsp)
    65eb:	45 31 c0             	xor    %r8d,%r8d
    65ee:	4c 8d 0d 1b 5e 01 00 	lea    0x15e1b(%rip),%r9        # 1c410 <constant_28_mobilenet>
    65f5:	48 89 44 24 30       	mov    %rax,0x30(%rsp)
    65fa:	eb 28                	jmp    6624 <main_graph_mobilenet+0x4354>
    65fc:	0f 1f 40 00          	nopl   0x0(%rax)
    6600:	49 ff c0             	inc    %r8
    6603:	48 8b 44 24 10       	mov    0x10(%rsp),%rax
    6608:	48 01 04 24          	add    %rax,(%rsp)
    660c:	48 01 44 24 20       	add    %rax,0x20(%rsp)
    6611:	49 01 c5             	add    %rax,%r13
    6614:	48 01 44 24 30       	add    %rax,0x30(%rsp)
    6619:	4c 3b 44 24 60       	cmp    0x60(%rsp),%r8
    661e:	0f 84 e9 00 00 00    	je     670d <main_graph_mobilenet+0x443d>
    6624:	48 85 ed             	test   %rbp,%rbp
    6627:	7e d7                	jle    6600 <main_graph_mobilenet+0x4330>
    6629:	4c 8b 74 24 10       	mov    0x10(%rsp),%r14
    662e:	4d 0f af f0          	imul   %r8,%r14
    6632:	48 8b 44 24 40       	mov    0x40(%rsp),%rax
    6637:	4e 8d 3c 30          	lea    (%rax,%r14,1),%r15
    663b:	4c 03 74 24 08       	add    0x8(%rsp),%r14
    6640:	4c 8b 64 24 30       	mov    0x30(%rsp),%r12
    6645:	4d 89 eb             	mov    %r13,%r11
    6648:	48 8b 7c 24 20       	mov    0x20(%rsp),%rdi
    664d:	48 8b 34 24          	mov    (%rsp),%rsi
    6651:	31 c0                	xor    %eax,%eax
    6653:	eb 20                	jmp    6675 <main_graph_mobilenet+0x43a5>
    6655:	66 2e 0f 1f 84 00 00 	cs nopw 0x0(%rax,%rax,1)
    665c:	00 00 00 
    665f:	90                   	nop
    6660:	48 ff c0             	inc    %rax
    6663:	48 01 ce             	add    %rcx,%rsi
    6666:	48 01 cf             	add    %rcx,%rdi
    6669:	49 01 cb             	add    %rcx,%r11
    666c:	49 01 cc             	add    %rcx,%r12
    666f:	48 83 f8 40          	cmp    $0x40,%rax
    6673:	74 8b                	je     6600 <main_graph_mobilenet+0x4330>
    6675:	48 83 fd 08          	cmp    $0x8,%rbp
    6679:	f3 41 0f 10 04 81    	movss  (%r9,%rax,4),%xmm0
    667f:	73 0f                	jae    6690 <main_graph_mobilenet+0x43c0>
    6681:	31 d2                	xor    %edx,%edx
    6683:	eb 6b                	jmp    66f0 <main_graph_mobilenet+0x4420>
    6685:	66 2e 0f 1f 84 00 00 	cs nopw 0x0(%rax,%rax,1)
    668c:	00 00 00 
    668f:	90                   	nop
    6690:	48 89 ca             	mov    %rcx,%rdx
    6693:	48 0f af d0          	imul   %rax,%rdx
    6697:	4d 8d 14 16          	lea    (%r14,%rdx,1),%r10
    669b:	4c 01 fa             	add    %r15,%rdx
    669e:	4c 29 d2             	sub    %r10,%rdx
    66a1:	48 83 fa 20          	cmp    $0x20,%rdx
    66a5:	73 09                	jae    66b0 <main_graph_mobilenet+0x43e0>
    66a7:	31 d2                	xor    %edx,%edx
    66a9:	eb 45                	jmp    66f0 <main_graph_mobilenet+0x4420>
    66ab:	0f 1f 44 00 00       	nopl   0x0(%rax,%rax,1)
    66b0:	0f 28 c8             	movaps %xmm0,%xmm1
    66b3:	0f c6 c8 00          	shufps $0x0,%xmm0,%xmm1
    66b7:	31 d2                	xor    %edx,%edx
    66b9:	0f 1f 80 00 00 00 00 	nopl   0x0(%rax)
    66c0:	0f 10 54 97 f0       	movups -0x10(%rdi,%rdx,4),%xmm2
    66c5:	0f 10 1c 97          	movups (%rdi,%rdx,4),%xmm3
    66c9:	0f 58 d1             	addps  %xmm1,%xmm2
    66cc:	0f 58 d9             	addps  %xmm1,%xmm3
    66cf:	0f 11 54 96 f0       	movups %xmm2,-0x10(%rsi,%rdx,4)
    66d4:	0f 11 1c 96          	movups %xmm3,(%rsi,%rdx,4)
    66d8:	48 83 c2 08          	add    $0x8,%rdx
    66dc:	48 39 d3             	cmp    %rdx,%rbx
    66df:	75 df                	jne    66c0 <main_graph_mobilenet+0x43f0>
    66e1:	48 39 dd             	cmp    %rbx,%rbp
    66e4:	48 89 da             	mov    %rbx,%rdx
    66e7:	0f 84 73 ff ff ff    	je     6660 <main_graph_mobilenet+0x4390>
    66ed:	0f 1f 00             	nopl   (%rax)
    66f0:	f3 41 0f 10 0c 94    	movss  (%r12,%rdx,4),%xmm1
    66f6:	f3 0f 58 c8          	addss  %xmm0,%xmm1
    66fa:	f3 41 0f 11 0c 93    	movss  %xmm1,(%r11,%rdx,4)
    6700:	48 ff c2             	inc    %rdx
    6703:	48 39 d5             	cmp    %rdx,%rbp
    6706:	75 e8                	jne    66f0 <main_graph_mobilenet+0x4420>
    6708:	e9 53 ff ff ff       	jmp    6660 <main_graph_mobilenet+0x4390>
    670d:	48 8b 7c 24 70       	mov    0x70(%rsp),%rdi
    6712:	e8 f9 b9 ff ff       	call   2110 <free@plt>
    6717:	bf 30 00 00 00       	mov    $0x30,%edi
    671c:	e8 af b9 ff ff       	call   20d0 <malloc@plt>
    6721:	49 89 c4             	mov    %rax,%r12
    6724:	4c 8d 78 0f          	lea    0xf(%rax),%r15
    6728:	49 83 e7 f0          	and    $0xfffffffffffffff0,%r15
    672c:	48 8b 44 24 78       	mov    0x78(%rsp),%rax
    6731:	48 8b 00             	mov    (%rax),%rax
    6734:	49 89 07             	mov    %rax,(%r15)
    6737:	48 8b 7c 24 58       	mov    0x58(%rsp),%rdi
    673c:	e8 cf b9 ff ff       	call   2110 <free@plt>
    6741:	48 8b 44 24 60       	mov    0x60(%rsp),%rax
    6746:	48 0f af e8          	imul   %rax,%rbp
    674a:	48 c1 e5 06          	shl    $0x6,%rbp
    674e:	49 8b 0f             	mov    (%r15),%rcx
    6751:	48 85 c9             	test   %rcx,%rcx
    6754:	48 0f 44 c8          	cmove  %rax,%rcx
    6758:	48 89 c8             	mov    %rcx,%rax
    675b:	48 c1 e0 0a          	shl    $0xa,%rax
    675f:	48 83 f9 ff          	cmp    $0xffffffffffffffff,%rcx
    6763:	48 8d 34 c0          	lea    (%rax,%rax,8),%rsi
    6767:	b8 00 24 00 00       	mov    $0x2400,%eax
    676c:	48 0f 44 f0          	cmove  %rax,%rsi
    6770:	48 89 f0             	mov    %rsi,%rax
    6773:	48 f7 d0             	not    %rax
    6776:	48 c1 f8 3f          	sar    $0x3f,%rax
    677a:	48 83 c8 01          	or     $0x1,%rax
    677e:	48 29 e8             	sub    %rbp,%rax
    6781:	48 99                	cqto   
    6783:	48 f7 fe             	idiv   %rsi
    6786:	49 89 c6             	mov    %rax,%r14
    6789:	49 f7 d6             	not    %r14
    678c:	48 89 e8             	mov    %rbp,%rax
    678f:	48 99                	cqto   
    6791:	48 f7 fe             	idiv   %rsi
    6794:	48 85 f6             	test   %rsi,%rsi
    6797:	48 89 c2             	mov    %rax,%rdx
    679a:	49 0f 48 d6          	cmovs  %r14,%rdx
    679e:	48 85 ed             	test   %rbp,%rbp
    67a1:	48 0f 4e d0          	cmovle %rax,%rdx
    67a5:	48 85 f6             	test   %rsi,%rsi
    67a8:	4c 0f 4e f2          	cmovle %rdx,%r14
    67ac:	48 85 ed             	test   %rbp,%rbp
    67af:	4c 0f 49 f2          	cmovns %rdx,%r14
    67b3:	48 83 f9 ff          	cmp    $0xffffffffffffffff,%rcx
    67b7:	4c 0f 45 f1          	cmovne %rcx,%r14
    67bb:	4c 89 f0             	mov    %r14,%rax
    67be:	48 c1 e0 08          	shl    $0x8,%rax
    67c2:	48 8d 0c c0          	lea    (%rax,%rax,8),%rcx
    67c6:	4c 89 f6             	mov    %r14,%rsi
    67c9:	48 c1 e6 06          	shl    $0x6,%rsi
    67cd:	49 83 fe ff          	cmp    $0xffffffffffffffff,%r14
    67d1:	b8 40 00 00 00       	mov    $0x40,%eax
    67d6:	48 0f 44 f0          	cmove  %rax,%rsi
    67da:	48 89 f0             	mov    %rsi,%rax
    67dd:	48 f7 d0             	not    %rax
    67e0:	48 c1 f8 3f          	sar    $0x3f,%rax
    67e4:	48 83 c8 01          	or     $0x1,%rax
    67e8:	48 29 c8             	sub    %rcx,%rax
    67eb:	48 99                	cqto   
    67ed:	48 f7 fe             	idiv   %rsi
    67f0:	49 89 c5             	mov    %rax,%r13
    67f3:	49 f7 d5             	not    %r13
    67f6:	48 89 c8             	mov    %rcx,%rax
    67f9:	48 99                	cqto   
    67fb:	48 f7 fe             	idiv   %rsi
    67fe:	48 85 f6             	test   %rsi,%rsi
    6801:	48 89 c2             	mov    %rax,%rdx
    6804:	49 0f 48 d5          	cmovs  %r13,%rdx
    6808:	48 85 c9             	test   %rcx,%rcx
    680b:	48 0f 4e d0          	cmovle %rax,%rdx
    680f:	48 85 f6             	test   %rsi,%rsi
    6812:	4c 0f 4e ea          	cmovle %rdx,%r13
    6816:	48 85 c9             	test   %rcx,%rcx
    6819:	4c 0f 49 ea          	cmovns %rdx,%r13
    681d:	49 83 fe ff          	cmp    $0xffffffffffffffff,%r14
    6821:	49 c7 47 08 40 00 00 	movq   $0x40,0x8(%r15)
    6828:	00 
    6829:	49 c7 47 10 0c 00 00 	movq   $0xc,0x10(%r15)
    6830:	00 
    6831:	49 c7 47 18 0c 00 00 	movq   $0xc,0x18(%r15)
    6838:	00 
    6839:	4c 89 f0             	mov    %r14,%rax
    683c:	49 0f 44 c5          	cmove  %r13,%rax
    6840:	48 89 44 24 60       	mov    %rax,0x60(%rsp)
    6845:	4c 89 e7             	mov    %r12,%rdi
    6848:	e8 c3 b8 ff ff       	call   2110 <free@plt>
    684d:	4c 89 f0             	mov    %r14,%rax
    6850:	48 c1 e0 0c          	shl    $0xc,%rax
    6854:	48 8d 7c c0 10       	lea    0x10(%rax,%rax,8),%rdi
    6859:	e8 72 b8 ff ff       	call   20d0 <malloc@plt>
    685e:	48 89 c3             	mov    %rax,%rbx
    6861:	4c 8d 78 0f          	lea    0xf(%rax),%r15
    6865:	48 89 44 24 10       	mov    %rax,0x10(%rsp)
    686a:	49 83 e7 f0          	and    $0xfffffffffffffff0,%r15
    686e:	4c 89 7c 24 08       	mov    %r15,0x8(%rsp)
    6873:	bf 04 00 00 00       	mov    $0x4,%edi
    6878:	e8 23 b9 ff ff       	call   21a0 <omTensorCreateUntyped@plt>
    687d:	48 89 c5             	mov    %rax,%rbp
    6880:	48 89 c7             	mov    %rax,%rdi
    6883:	31 f6                	xor    %esi,%esi
    6885:	48 89 da             	mov    %rbx,%rdx
    6888:	4c 89 f9             	mov    %r15,%rcx
    688b:	e8 60 b8 ff ff       	call   20f0 <omTensorSetDataPtr@plt>
    6890:	be 01 00 00 00       	mov    $0x1,%esi
    6895:	48 89 ef             	mov    %rbp,%rdi
    6898:	e8 03 b8 ff ff       	call   20a0 <omTensorSetDataType@plt>
    689d:	48 89 ef             	mov    %rbp,%rdi
    68a0:	e8 2b b9 ff ff       	call   21d0 <omTensorGetShape@plt>
    68a5:	49 89 c7             	mov    %rax,%r15
    68a8:	48 89 ef             	mov    %rbp,%rdi
    68ab:	e8 c0 b7 ff ff       	call   2070 <omTensorGetStrides@plt>
    68b0:	4d 89 37             	mov    %r14,(%r15)
    68b3:	48 c7 00 00 24 00 00 	movq   $0x2400,(%rax)
    68ba:	49 c7 47 08 40 00 00 	movq   $0x40,0x8(%r15)
    68c1:	00 
    68c2:	48 c7 40 08 90 00 00 	movq   $0x90,0x8(%rax)
    68c9:	00 
    68ca:	49 c7 47 10 0c 00 00 	movq   $0xc,0x10(%r15)
    68d1:	00 
    68d2:	48 c7 40 10 0c 00 00 	movq   $0xc,0x10(%rax)
    68d9:	00 
    68da:	49 c7 47 18 0c 00 00 	movq   $0xc,0x18(%r15)
    68e1:	00 
    68e2:	48 c7 40 18 01 00 00 	movq   $0x1,0x18(%rax)
    68e9:	00 
    68ea:	bf 04 00 00 00       	mov    $0x4,%edi
    68ef:	e8 ac b8 ff ff       	call   21a0 <omTensorCreateUntyped@plt>
    68f4:	49 89 c7             	mov    %rax,%r15
    68f7:	48 89 c7             	mov    %rax,%rdi
    68fa:	31 f6                	xor    %esi,%esi
    68fc:	4c 8b 64 24 50       	mov    0x50(%rsp),%r12
    6901:	4c 89 e2             	mov    %r12,%rdx
    6904:	48 8b 4c 24 40       	mov    0x40(%rsp),%rcx
    6909:	e8 e2 b7 ff ff       	call   20f0 <omTensorSetDataPtr@plt>
    690e:	be 01 00 00 00       	mov    $0x1,%esi
    6913:	4c 89 ff             	mov    %r15,%rdi
    6916:	e8 85 b7 ff ff       	call   20a0 <omTensorSetDataType@plt>
    691b:	4c 89 ff             	mov    %r15,%rdi
    691e:	e8 ad b8 ff ff       	call   21d0 <omTensorGetShape@plt>
    6923:	48 89 c3             	mov    %rax,%rbx
    6926:	4c 89 ff             	mov    %r15,%rdi
    6929:	e8 42 b7 ff ff       	call   2070 <omTensorGetStrides@plt>
    692e:	4c 89 33             	mov    %r14,(%rbx)
    6931:	48 c7 00 00 24 00 00 	movq   $0x2400,(%rax)
    6938:	48 c7 43 08 40 00 00 	movq   $0x40,0x8(%rbx)
    693f:	00 
    6940:	48 c7 40 08 90 00 00 	movq   $0x90,0x8(%rax)
    6947:	00 
    6948:	48 c7 43 10 0c 00 00 	movq   $0xc,0x10(%rbx)
    694f:	00 
    6950:	48 c7 40 10 0c 00 00 	movq   $0xc,0x10(%rax)
    6957:	00 
    6958:	48 c7 43 18 0c 00 00 	movq   $0xc,0x18(%rbx)
    695f:	00 
    6960:	48 c7 40 18 01 00 00 	movq   $0x1,0x18(%rax)
    6967:	00 
    6968:	48 89 ef             	mov    %rbp,%rdi
    696b:	4c 89 fe             	mov    %r15,%rsi
    696e:	e8 7d b8 ff ff       	call   21f0 <Relu@plt>
    6973:	48 89 ef             	mov    %rbp,%rdi
    6976:	e8 35 b8 ff ff       	call   21b0 <omTensorDestroy@plt>
    697b:	4c 89 ff             	mov    %r15,%rdi
    697e:	e8 2d b8 ff ff       	call   21b0 <omTensorDestroy@plt>
    6983:	4c 89 e7             	mov    %r12,%rdi
    6986:	e8 85 b7 ff ff       	call   2110 <free@plt>
    698b:	4c 89 f0             	mov    %r14,%rax
    698e:	48 c1 e0 0a          	shl    $0xa,%rax
    6992:	48 8d 7c c0 10       	lea    0x10(%rax,%rax,8),%rdi
    6997:	48 89 7c 24 30       	mov    %rdi,0x30(%rsp)
    699c:	e8 2f b7 ff ff       	call   20d0 <malloc@plt>
    69a1:	48 89 c3             	mov    %rax,%rbx
    69a4:	4c 8d 78 0f          	lea    0xf(%rax),%r15
    69a8:	48 89 44 24 20       	mov    %rax,0x20(%rsp)
    69ad:	49 83 e7 f0          	and    $0xfffffffffffffff0,%r15
    69b1:	4c 89 3c 24          	mov    %r15,(%rsp)
    69b5:	bf 04 00 00 00       	mov    $0x4,%edi
    69ba:	e8 e1 b7 ff ff       	call   21a0 <omTensorCreateUntyped@plt>
    69bf:	49 89 c4             	mov    %rax,%r12
    69c2:	48 89 44 24 40       	mov    %rax,0x40(%rsp)
    69c7:	48 89 c7             	mov    %rax,%rdi
    69ca:	31 f6                	xor    %esi,%esi
    69cc:	48 89 da             	mov    %rbx,%rdx
    69cf:	4c 89 f9             	mov    %r15,%rcx
    69d2:	e8 19 b7 ff ff       	call   20f0 <omTensorSetDataPtr@plt>
    69d7:	be 01 00 00 00       	mov    $0x1,%esi
    69dc:	4c 89 e7             	mov    %r12,%rdi
    69df:	e8 bc b6 ff ff       	call   20a0 <omTensorSetDataType@plt>
    69e4:	4c 89 e7             	mov    %r12,%rdi
    69e7:	e8 e4 b7 ff ff       	call   21d0 <omTensorGetShape@plt>
    69ec:	49 89 c7             	mov    %rax,%r15
    69ef:	4c 89 e7             	mov    %r12,%rdi
    69f2:	e8 79 b6 ff ff       	call   2070 <omTensorGetStrides@plt>
    69f7:	4d 89 37             	mov    %r14,(%r15)
    69fa:	48 c7 00 00 09 00 00 	movq   $0x900,(%rax)
    6a01:	49 c7 47 08 40 00 00 	movq   $0x40,0x8(%r15)
    6a08:	00 
    6a09:	48 c7 40 08 24 00 00 	movq   $0x24,0x8(%rax)
    6a10:	00 
    6a11:	49 c7 47 10 06 00 00 	movq   $0x6,0x10(%r15)
    6a18:	00 
    6a19:	48 c7 40 10 06 00 00 	movq   $0x6,0x10(%rax)
    6a20:	00 
    6a21:	49 c7 47 18 06 00 00 	movq   $0x6,0x18(%r15)
    6a28:	00 
    6a29:	48 c7 40 18 01 00 00 	movq   $0x1,0x18(%rax)
    6a30:	00 
    6a31:	bf 04 00 00 00       	mov    $0x4,%edi
    6a36:	e8 65 b7 ff ff       	call   21a0 <omTensorCreateUntyped@plt>
    6a3b:	49 89 c7             	mov    %rax,%r15
    6a3e:	48 89 c7             	mov    %rax,%rdi
    6a41:	31 f6                	xor    %esi,%esi
    6a43:	48 8b 54 24 10       	mov    0x10(%rsp),%rdx
    6a48:	48 8b 4c 24 08       	mov    0x8(%rsp),%rcx
    6a4d:	e8 9e b6 ff ff       	call   20f0 <omTensorSetDataPtr@plt>
    6a52:	be 01 00 00 00       	mov    $0x1,%esi
    6a57:	4c 89 ff             	mov    %r15,%rdi
    6a5a:	e8 41 b6 ff ff       	call   20a0 <omTensorSetDataType@plt>
    6a5f:	4c 89 ff             	mov    %r15,%rdi
    6a62:	e8 69 b7 ff ff       	call   21d0 <omTensorGetShape@plt>
    6a67:	49 89 c4             	mov    %rax,%r12
    6a6a:	4c 89 ff             	mov    %r15,%rdi
    6a6d:	e8 fe b5 ff ff       	call   2070 <omTensorGetStrides@plt>
    6a72:	4d 89 34 24          	mov    %r14,(%r12)
    6a76:	48 c7 00 00 24 00 00 	movq   $0x2400,(%rax)
    6a7d:	49 c7 44 24 08 40 00 	movq   $0x40,0x8(%r12)
    6a84:	00 00 
    6a86:	48 c7 40 08 90 00 00 	movq   $0x90,0x8(%rax)
    6a8d:	00 
    6a8e:	49 c7 44 24 10 0c 00 	movq   $0xc,0x10(%r12)
    6a95:	00 00 
    6a97:	48 c7 40 10 0c 00 00 	movq   $0xc,0x10(%rax)
    6a9e:	00 
    6a9f:	49 c7 44 24 18 0c 00 	movq   $0xc,0x18(%r12)
    6aa6:	00 00 
    6aa8:	48 c7 40 18 01 00 00 	movq   $0x1,0x18(%rax)
    6aaf:	00 
    6ab0:	48 8d 2d 19 78 00 00 	lea    0x7819(%rip),%rbp        # e2d0 <constant_67_mobilenet>
    6ab7:	bf 04 00 00 00       	mov    $0x4,%edi
    6abc:	e8 df b6 ff ff       	call   21a0 <omTensorCreateUntyped@plt>
    6ac1:	49 89 c4             	mov    %rax,%r12
    6ac4:	48 89 c7             	mov    %rax,%rdi
    6ac7:	31 f6                	xor    %esi,%esi
    6ac9:	48 89 ea             	mov    %rbp,%rdx
    6acc:	48 89 e9             	mov    %rbp,%rcx
    6acf:	e8 1c b6 ff ff       	call   20f0 <omTensorSetDataPtr@plt>
    6ad4:	be 01 00 00 00       	mov    $0x1,%esi
    6ad9:	4c 89 e7             	mov    %r12,%rdi
    6adc:	e8 bf b5 ff ff       	call   20a0 <omTensorSetDataType@plt>
    6ae1:	4c 89 e7             	mov    %r12,%rdi
    6ae4:	e8 e7 b6 ff ff       	call   21d0 <omTensorGetShape@plt>
    6ae9:	48 89 c5             	mov    %rax,%rbp
    6aec:	4c 89 e7             	mov    %r12,%rdi
    6aef:	e8 7c b5 ff ff       	call   2070 <omTensorGetStrides@plt>
    6af4:	48 c7 45 00 40 00 00 	movq   $0x40,0x0(%rbp)
    6afb:	00 
    6afc:	48 c7 00 09 00 00 00 	movq   $0x9,(%rax)
    6b03:	48 c7 45 08 01 00 00 	movq   $0x1,0x8(%rbp)
    6b0a:	00 
    6b0b:	48 c7 40 08 09 00 00 	movq   $0x9,0x8(%rax)
    6b12:	00 
    6b13:	48 c7 45 10 03 00 00 	movq   $0x3,0x10(%rbp)
    6b1a:	00 
    6b1b:	48 c7 40 10 03 00 00 	movq   $0x3,0x10(%rax)
    6b22:	00 
    6b23:	48 c7 45 18 03 00 00 	movq   $0x3,0x18(%rbp)
    6b2a:	00 
    6b2b:	48 c7 40 18 01 00 00 	movq   $0x1,0x18(%rax)
    6b32:	00 
    6b33:	48 8d 1d 96 31 01 00 	lea    0x13196(%rip),%rbx        # 19cd0 <constant_50_mobilenet>
    6b3a:	bf 01 00 00 00       	mov    $0x1,%edi
    6b3f:	e8 5c b6 ff ff       	call   21a0 <omTensorCreateUntyped@plt>
    6b44:	48 89 c5             	mov    %rax,%rbp
    6b47:	48 89 c7             	mov    %rax,%rdi
    6b4a:	31 f6                	xor    %esi,%esi
    6b4c:	48 89 da             	mov    %rbx,%rdx
    6b4f:	48 89 d9             	mov    %rbx,%rcx
    6b52:	e8 99 b5 ff ff       	call   20f0 <omTensorSetDataPtr@plt>
    6b57:	be 01 00 00 00       	mov    $0x1,%esi
    6b5c:	48 89 ef             	mov    %rbp,%rdi
    6b5f:	e8 3c b5 ff ff       	call   20a0 <omTensorSetDataType@plt>
    6b64:	48 89 ef             	mov    %rbp,%rdi
    6b67:	e8 64 b6 ff ff       	call   21d0 <omTensorGetShape@plt>
    6b6c:	48 89 c3             	mov    %rax,%rbx
    6b6f:	48 89 ef             	mov    %rbp,%rdi
    6b72:	e8 f9 b4 ff ff       	call   2070 <omTensorGetStrides@plt>
    6b77:	48 c7 03 40 00 00 00 	movq   $0x40,(%rbx)
    6b7e:	48 c7 00 01 00 00 00 	movq   $0x1,(%rax)
    6b85:	48 8b 5c 24 40       	mov    0x40(%rsp),%rbx
    6b8a:	48 89 df             	mov    %rbx,%rdi
    6b8d:	4c 89 fe             	mov    %r15,%rsi
    6b90:	4c 89 e2             	mov    %r12,%rdx
    6b93:	48 89 e9             	mov    %rbp,%rcx
    6b96:	45 31 c0             	xor    %r8d,%r8d
    6b99:	45 31 c9             	xor    %r9d,%r9d
    6b9c:	6a 02                	push   $0x2
    6b9e:	6a 02                	push   $0x2
    6ba0:	6a 01                	push   $0x1
    6ba2:	6a 01                	push   $0x1
    6ba4:	e8 b7 b5 ff ff       	call   2160 <Conv2D_bias@plt>
    6ba9:	48 83 c4 20          	add    $0x20,%rsp
    6bad:	48 89 df             	mov    %rbx,%rdi
    6bb0:	e8 fb b5 ff ff       	call   21b0 <omTensorDestroy@plt>
    6bb5:	4c 89 ff             	mov    %r15,%rdi
    6bb8:	e8 f3 b5 ff ff       	call   21b0 <omTensorDestroy@plt>
    6bbd:	4c 89 e7             	mov    %r12,%rdi
    6bc0:	e8 eb b5 ff ff       	call   21b0 <omTensorDestroy@plt>
    6bc5:	48 89 ef             	mov    %rbp,%rdi
    6bc8:	e8 e3 b5 ff ff       	call   21b0 <omTensorDestroy@plt>
    6bcd:	48 8b 7c 24 10       	mov    0x10(%rsp),%rdi
    6bd2:	e8 39 b5 ff ff       	call   2110 <free@plt>
    6bd7:	48 8b 7c 24 30       	mov    0x30(%rsp),%rdi
    6bdc:	e8 ef b4 ff ff       	call   20d0 <malloc@plt>
    6be1:	48 89 c3             	mov    %rax,%rbx
    6be4:	4c 8d 60 0f          	lea    0xf(%rax),%r12
    6be8:	48 89 44 24 10       	mov    %rax,0x10(%rsp)
    6bed:	49 83 e4 f0          	and    $0xfffffffffffffff0,%r12
    6bf1:	4c 89 64 24 30       	mov    %r12,0x30(%rsp)
    6bf6:	bf 04 00 00 00       	mov    $0x4,%edi
    6bfb:	e8 a0 b5 ff ff       	call   21a0 <omTensorCreateUntyped@plt>
    6c00:	49 89 c7             	mov    %rax,%r15
    6c03:	48 89 c7             	mov    %rax,%rdi
    6c06:	31 f6                	xor    %esi,%esi
    6c08:	48 89 da             	mov    %rbx,%rdx
    6c0b:	4c 89 e1             	mov    %r12,%rcx
    6c0e:	e8 dd b4 ff ff       	call   20f0 <omTensorSetDataPtr@plt>
    6c13:	be 01 00 00 00       	mov    $0x1,%esi
    6c18:	4c 89 ff             	mov    %r15,%rdi
    6c1b:	e8 80 b4 ff ff       	call   20a0 <omTensorSetDataType@plt>
    6c20:	4c 89 ff             	mov    %r15,%rdi
    6c23:	e8 a8 b5 ff ff       	call   21d0 <omTensorGetShape@plt>
    6c28:	48 89 c3             	mov    %rax,%rbx
    6c2b:	4c 89 ff             	mov    %r15,%rdi
    6c2e:	e8 3d b4 ff ff       	call   2070 <omTensorGetStrides@plt>
    6c33:	4c 89 33             	mov    %r14,(%rbx)
    6c36:	48 c7 00 00 09 00 00 	movq   $0x900,(%rax)
    6c3d:	48 c7 43 08 40 00 00 	movq   $0x40,0x8(%rbx)
    6c44:	00 
    6c45:	48 c7 40 08 24 00 00 	movq   $0x24,0x8(%rax)
    6c4c:	00 
    6c4d:	48 c7 43 10 06 00 00 	movq   $0x6,0x10(%rbx)
    6c54:	00 
    6c55:	48 c7 40 10 06 00 00 	movq   $0x6,0x10(%rax)
    6c5c:	00 
    6c5d:	48 c7 43 18 06 00 00 	movq   $0x6,0x18(%rbx)
    6c64:	00 
    6c65:	48 c7 40 18 01 00 00 	movq   $0x1,0x18(%rax)
    6c6c:	00 
    6c6d:	bf 04 00 00 00       	mov    $0x4,%edi
    6c72:	e8 29 b5 ff ff       	call   21a0 <omTensorCreateUntyped@plt>
    6c77:	48 89 c3             	mov    %rax,%rbx
    6c7a:	48 89 c7             	mov    %rax,%rdi
    6c7d:	31 f6                	xor    %esi,%esi
    6c7f:	4c 8b 64 24 20       	mov    0x20(%rsp),%r12
    6c84:	4c 89 e2             	mov    %r12,%rdx
    6c87:	48 8b 0c 24          	mov    (%rsp),%rcx
    6c8b:	e8 60 b4 ff ff       	call   20f0 <omTensorSetDataPtr@plt>
    6c90:	be 01 00 00 00       	mov    $0x1,%esi
    6c95:	48 89 df             	mov    %rbx,%rdi
    6c98:	e8 03 b4 ff ff       	call   20a0 <omTensorSetDataType@plt>
    6c9d:	48 89 df             	mov    %rbx,%rdi
    6ca0:	e8 2b b5 ff ff       	call   21d0 <omTensorGetShape@plt>
    6ca5:	48 89 c5             	mov    %rax,%rbp
    6ca8:	48 89 df             	mov    %rbx,%rdi
    6cab:	e8 c0 b3 ff ff       	call   2070 <omTensorGetStrides@plt>
    6cb0:	4c 89 75 00          	mov    %r14,0x0(%rbp)
    6cb4:	48 c7 00 00 09 00 00 	movq   $0x900,(%rax)
    6cbb:	48 c7 45 08 40 00 00 	movq   $0x40,0x8(%rbp)
    6cc2:	00 
    6cc3:	48 c7 40 08 24 00 00 	movq   $0x24,0x8(%rax)
    6cca:	00 
    6ccb:	48 c7 45 10 06 00 00 	movq   $0x6,0x10(%rbp)
    6cd2:	00 
    6cd3:	48 c7 40 10 06 00 00 	movq   $0x6,0x10(%rax)
    6cda:	00 
    6cdb:	48 c7 45 18 06 00 00 	movq   $0x6,0x18(%rbp)
    6ce2:	00 
    6ce3:	48 c7 40 18 01 00 00 	movq   $0x1,0x18(%rax)
    6cea:	00 
    6ceb:	4c 89 ff             	mov    %r15,%rdi
    6cee:	48 89 de             	mov    %rbx,%rsi
    6cf1:	e8 fa b4 ff ff       	call   21f0 <Relu@plt>
    6cf6:	4c 89 ff             	mov    %r15,%rdi
    6cf9:	e8 b2 b4 ff ff       	call   21b0 <omTensorDestroy@plt>
    6cfe:	48 89 df             	mov    %rbx,%rdi
    6d01:	e8 aa b4 ff ff       	call   21b0 <omTensorDestroy@plt>
    6d06:	4c 89 e7             	mov    %r12,%rdi
    6d09:	e8 02 b4 ff ff       	call   2110 <free@plt>
    6d0e:	bf 18 00 00 00       	mov    $0x18,%edi
    6d13:	e8 b8 b3 ff ff       	call   20d0 <malloc@plt>
    6d18:	48 89 44 24 58       	mov    %rax,0x58(%rsp)
    6d1d:	48 83 c0 0f          	add    $0xf,%rax
    6d21:	48 83 e0 f0          	and    $0xfffffffffffffff0,%rax
    6d25:	48 89 44 24 78       	mov    %rax,0x78(%rsp)
    6d2a:	4c 89 30             	mov    %r14,(%rax)
    6d2d:	bf 28 00 00 00       	mov    $0x28,%edi
    6d32:	e8 99 b3 ff ff       	call   20d0 <malloc@plt>
    6d37:	48 8d 48 0f          	lea    0xf(%rax),%rcx
    6d3b:	48 83 e1 f0          	and    $0xfffffffffffffff0,%rcx
    6d3f:	4c 89 31             	mov    %r14,(%rcx)
    6d42:	48 c7 41 08 40 00 00 	movq   $0x40,0x8(%rcx)
    6d49:	00 
    6d4a:	48 c7 41 10 ff ff ff 	movq   $0xffffffffffffffff,0x10(%rcx)
    6d51:	ff 
    6d52:	48 89 c7             	mov    %rax,%rdi
    6d55:	e8 b6 b3 ff ff       	call   2110 <free@plt>
    6d5a:	4c 89 e8             	mov    %r13,%rax
    6d5d:	48 c1 e0 06          	shl    $0x6,%rax
    6d61:	48 89 44 24 20       	mov    %rax,0x20(%rsp)
    6d66:	4c 89 eb             	mov    %r13,%rbx
    6d69:	48 c1 e3 07          	shl    $0x7,%rbx
    6d6d:	48 8b 6c 24 60       	mov    0x60(%rsp),%rbp
    6d72:	48 89 e8             	mov    %rbp,%rax
    6d75:	48 0f af c3          	imul   %rbx,%rax
    6d79:	48 8d 3c 85 10 00 00 	lea    0x10(,%rax,4),%rdi
    6d80:	00 
    6d81:	48 89 3c 24          	mov    %rdi,(%rsp)
    6d85:	e8 46 b3 ff ff       	call   20d0 <malloc@plt>
    6d8a:	49 89 c7             	mov    %rax,%r15
    6d8d:	4c 8d 60 0f          	lea    0xf(%rax),%r12
    6d91:	49 83 e4 f0          	and    $0xfffffffffffffff0,%r12
    6d95:	bf 03 00 00 00       	mov    $0x3,%edi
    6d9a:	e8 01 b4 ff ff       	call   21a0 <omTensorCreateUntyped@plt>
    6d9f:	49 89 c6             	mov    %rax,%r14
    6da2:	48 89 c7             	mov    %rax,%rdi
    6da5:	31 f6                	xor    %esi,%esi
    6da7:	4c 89 7c 24 70       	mov    %r15,0x70(%rsp)
    6dac:	4c 89 fa             	mov    %r15,%rdx
    6daf:	4c 89 64 24 08       	mov    %r12,0x8(%rsp)
    6db4:	4c 89 e1             	mov    %r12,%rcx
    6db7:	e8 34 b3 ff ff       	call   20f0 <omTensorSetDataPtr@plt>
    6dbc:	be 01 00 00 00       	mov    $0x1,%esi
    6dc1:	4c 89 f7             	mov    %r14,%rdi
    6dc4:	e8 d7 b2 ff ff       	call   20a0 <omTensorSetDataType@plt>
    6dc9:	4c 89 f7             	mov    %r14,%rdi
